C51 COMPILER V9.60.0.0   LCDDRIVER                                                         05/03/2021 21:31:15 PAGE 1   


C51 COMPILER V9.60.0.0, COMPILATION OF MODULE LCDDRIVER
OBJECT MODULE PLACED IN .\Objects\lcdDriver.obj
COMPILER INVOKED BY: C:\Keil\C51\BIN\C51.EXE lcdDriver.c LARGE OMF2 OPTIMIZE(9,SPEED) BROWSE VARBANKING(1) DEBUG CODE PR
                    -INT(.\Listings\lcdDriver.lst) OBJECT(.\Objects\lcdDriver.obj)

line level    source

   1          #include <absacc.h>
   2          #include <intrins.h>
   3          #include <string.h>
   4          #include "LCDDriver.h"
   5          #include "RGBConvert.h"
   6          #include "word.h"
   7          
   8          char *reverse(char *s){
   9   1          char temp;
  10   1          char *p = s;    //pÊåáÂêësÁöÑÂ§¥ÈÉ®
  11   1          char *q = s;    //qÊåáÂêësÁöÑÂ∞æÈÉ®
  12   1          while(*q)
  13   1              ++q;
  14   1          q--;
  15   1          
  16   1          //‰∫§Êç¢ÁßªÂä®ÊåáÈíàÔºåÁõ¥Âà∞pÂíåq‰∫§Âèâ
  17   1          while(q > p)
  18   1          {
  19   2              temp = *p;
  20   2              *p++ = *q;
  21   2              *q-- = temp;
  22   2          }
  23   1          return s;
  24   1      }
  25          char *itoa(int n)
  26          {
  27   1          int i = 0,isNegative = 0;
  28   1          static char s[100];      //ÂøÖÈ°ª‰∏∫staticÂèòÈáèÔºåÊàñËÄÖÊòØÂÖ®Â±ÄÂèòÈáè
  29   1          if((isNegative = n) < 0) //Â¶ÇÊûúÊòØË¥üÊï∞ÔºåÂÖàËΩ¨‰∏∫Ê≠£Êï∞
  30   1          {
  31   2              n = -n;
  32   2          }
  33   1          do      //‰ªéÂêÑ‰ΩçÂºÄÂßãÂèò‰∏∫Â≠óÁ¨¶ÔºåÁõ¥Âà∞ÊúÄÈ´ò‰ΩçÔºåÊúÄÂêéÂ∫îËØ•ÂèçËΩ¨
  34   1          {
  35   2              s[i++] = n%10 + '0';
  36   2              n = n/10;
  37   2          }while(n > 0);
  38   1          
  39   1          if(isNegative < 0)   //Â¶ÇÊûúÊòØË¥üÊï∞ÔºåË°•‰∏äË¥üÂè∑
  40   1          {
  41   2              s[i++] = '-';
  42   2          }
  43   1          s[i] = '\0';    //ÊúÄÂêéÂä†‰∏äÂ≠óÁ¨¶‰∏≤ÁªìÊùüÁ¨¶
  44   1          return reverse(s);
  45   1      }
  46          void output_Pixel(unsigned int x,unsigned int y); // ËæìÂá∫‰∏Ä‰∏™ÂÉèÁ¥†
  47          void LCD_ShowString(int x, int y, int fontSize, char* p, int mode, int fgColor, int bgColor) {
  48   1              while((*p<='~')&&(*p>=' '))//Âà§Êñ≠ÊòØ‰∏çÊòØÈùûÊ≥ïÂ≠óÁ¨¶!
  49   1          {   
  50   2              LCD_ShowChar(x,y,fontSize,*p,mode,fgColor,bgColor);
  51   2              x+=fontSize/2;
  52   2              p++;
  53   2          }
  54   1      }
C51 COMPILER V9.60.0.0   LCDDRIVER                                                         05/03/2021 21:31:15 PAGE 2   

  55          void LCD_ShowChar(int x, int y, int fontSize, char p, int mode, int fgColor, int bgColor) {
  56   1              int temp;
  57   1          int pos,t;
  58   1              // fontSize: 16; 24;   
  59   1              p = p - ' ';
  60   1              LCD_SetRegion(x, y, x+fontSize / 2-1, y+fontSize-1); //ËÆæÁΩÆÂçï‰∏™ÊñáÂ≠óÊòæÁ§∫Á™óÂè£
  61   1              if(!mode) //ÈùûÂè†Âä†ÊñπÂºè
  62   1              {
  63   2                      //for(pos=0;pos<fontSize*2;pos++)
  64   2                      for(pos=0;pos<fontSize;pos++)
  65   2                      {
  66   3                              if(fontSize == 16)
  67   3                                      temp=ASCII_8x16[p][pos];//Ë∞ÉÁî®8x16Â≠ó‰Ωì
  68   3                              else if (fontSize == 24) temp=ASCII_12x24[p][pos];               //Ë∞ÉÁî®12*24Â≠ó‰Ωì
  69   3                              else return;
  70   3                              for(t=0;t<fontSize/2;t++)
  71   3                          {                 
  72   4                              if(temp & 0x01)LCD_WriteData_16Bit(fgColor); 
  73   4                                      else LCD_WriteData_16Bit(bgColor); 
  74   4                                      temp>>=1;
  75   4                          }
  76   3                              
  77   3                      }       
  78   2              }
  79   1              else {
  80   2                      if (!((fontSize/8)%2)) {
  81   3                              for (pos=0;pos<fontSize*(fontSize/2)/8;pos++) {
  82   4                                      if(fontSize==16)
  83   4                                              temp=ASCII_8x16[p][pos];
  84   4                                      else return;    
  85   4                                      for (t=0;t<fontSize/2;++t) {
  86   5                                              if (temp&0x01) LCD_DrawPoint(x+t,y+pos,fgColor);
  87   5                                              temp>>=1;
  88   5                                      }
  89   4                              }
  90   3                      }
  91   2                      else {
  92   3                              //LCD_ShowString(50,50,16,itoa(fontSize*(fontSize/2)/6),1,BLACK,WHITE);
  93   3                              for (pos=0;pos<fontSize*(fontSize/2)/6;pos++) {
  94   4                                      
  95   4                                      // 16*8/8=16
  96   4                                      // 24*12/6=48
  97   4                                      if(fontSize==24) temp=ASCII_12x24[p][pos];      
  98   4                                      else return;
  99   4                                      for (t=0;t<fontSize/2;++t) {
 100   5                                              if (temp&0x01) LCD_DrawPoint(x+t,y+pos,fgColor);
 101   5                                              temp>>=1;
 102   5                                      }
 103   4                              }
 104   3                      }
 105   2              }
 106   1              #ifndef USE_LANDSPACE
 107   1              LCD_SetRegion(0, 0, SCREEN_WIDTH, SCREEN_HEIGHT);
 108   1              #else
                      LCD_SetRegion(0, 0, SCREEN_HEIGHT, SCREEN_WIDTH);
                      #endif
 111   1      }
 112          void delay_ms(unsigned int time) { // Âª∂ËøüxÊØ´Áßí
 113   1              unsigned int i,j;
 114   1              for(i=0;i<time;i++)
 115   1                      for(j=0;j<250;j++);
 116   1      }
C51 COMPILER V9.60.0.0   LCDDRIVER                                                         05/03/2021 21:31:15 PAGE 3   

 117          void SPI_WriteData(unsigned char Data) { // ÂêëSPIÊÄªÁ∫ø‰º†Ëæì‰∏Ä‰∏™8‰ΩçÊï∞ÊçÆ
 118   1              unsigned char i=0;
 119   1              for(i=8;i>0;i--) {
 120   2                      if(Data&0x80)
 121   2                              sda=1; //ËæìÂá∫Êï∞ÊçÆ
 122   2                      else sda=0;
 123   2                      scl=0;
 124   2                      scl=1;
 125   2                      Data<<=1;
 126   2              }
 127   1      }
 128          void LCD_WriteIndex(unsigned char Data) { // ÂêëÂ±èÂπïÂÜôÂÖ•‰∏Ä‰∏™8‰ΩçÊåá‰ª§
 129   1              cs=0;
 130   1              rs=0;
 131   1              SPI_WriteData(Data);
 132   1              cs=1;
 133   1      }
 134          void LCD_WriteData(unsigned char Data) { // ÂêëÂ±èÂπïÂÜôÂÖ•‰∏Ä‰∏™8‰ΩçÊï∞ÊçÆ
 135   1              unsigned char i=0;
 136   1              cs=0;
 137   1              rs=1;
 138   1              SPI_WriteData(Data);
 139   1              cs=1;
 140   1      }
 141          
 142          void LCD_WriteData_16Bit(unsigned int Data) { // ÂêëÂ±èÂπïÂÜôÂÖ•‰∏Ä‰∏™16‰ΩçÊï∞ÊçÆ
 143   1              unsigned char i=0;
 144   1              cs=0;
 145   1              rs=1;
 146   1              SPI_WriteData(Data>>8); 
 147   1              SPI_WriteData(Data);
 148   1              cs=1;
 149   1      }
 150                  
 151          void LCD_Reset() { // ÈáçÁΩÆÂ±èÂπï
 152   1              reset=0;
 153   1          delay_ms(100);
 154   1          reset=1;
 155   1          delay_ms(100);
 156   1      }
 157          
 158          void LCD_Init() {// ÂàùÂßãÂåñLCD, ÂøÖÈ°ªË∞ÉÁî®
 159   1              LCD_Reset();//Reset before LCD Init.
 160   1          LCD_WriteIndex(0x11);//Sleep exit
 161   1          delay_ms (120);
 162   1          LCD_WriteIndex(0xB1);
 163   1              LCD_WriteData(0x01);
 164   1              LCD_WriteData(0x2C);
 165   1              LCD_WriteData(0x2D);
 166   1              LCD_WriteIndex(0xB2);
 167   1              LCD_WriteData(0x01);
 168   1              LCD_WriteData(0x2C);
 169   1              LCD_WriteData(0x2D);
 170   1              LCD_WriteIndex(0xB3);
 171   1              LCD_WriteData(0x01);
 172   1              LCD_WriteData(0x2C);
 173   1              LCD_WriteData(0x2D);
 174   1              LCD_WriteData(0x01);
 175   1              LCD_WriteData(0x2C);
 176   1              LCD_WriteData(0x2D);
 177   1              LCD_WriteIndex(0xB4); 
 178   1              LCD_WriteData(0x07);
C51 COMPILER V9.60.0.0   LCDDRIVER                                                         05/03/2021 21:31:15 PAGE 4   

 179   1              LCD_WriteIndex(0xC0);
 180   1              LCD_WriteData(0xA2);
 181   1              LCD_WriteData(0x02);
 182   1              LCD_WriteData(0x84);
 183   1              LCD_WriteIndex(0xC1);
 184   1              LCD_WriteData(0xC5);
 185   1              LCD_WriteIndex(0xC2);
 186   1              LCD_WriteData(0x0A);
 187   1              LCD_WriteData(0x00);
 188   1              LCD_WriteIndex(0xC3);
 189   1              LCD_WriteData(0x8A);
 190   1              LCD_WriteData(0x2A);
 191   1              LCD_WriteIndex(0xC4);
 192   1              LCD_WriteData(0x8A);
 193   1              LCD_WriteData(0xEE);
 194   1              LCD_WriteIndex(0xC5);
 195   1              LCD_WriteData(0x0E);
 196   1              LCD_WriteIndex(0x36);
 197   1      #ifdef USE_LANDSCAPE
 198   1              LCD_WriteData(0xA8); //Á´ñÂ±èC8 Ê®™Â±è08 A8
 199   1      #else
                      LCD_WriteData(0xC8); //Á´ñÂ±èC8 Ê®™Â±è08 A8
              #endif              
 202   1              LCD_WriteIndex(0xe0);
 203   1              LCD_WriteData(0x0f);
 204   1              LCD_WriteData(0x1a);
 205   1              LCD_WriteData(0x0f);
 206   1              LCD_WriteData(0x18);
 207   1              LCD_WriteData(0x2f);
 208   1              LCD_WriteData(0x28);
 209   1              LCD_WriteData(0x20);
 210   1              LCD_WriteData(0x22);
 211   1              LCD_WriteData(0x1f);
 212   1              LCD_WriteData(0x1b);
 213   1              LCD_WriteData(0x23);
 214   1              LCD_WriteData(0x37);
 215   1              LCD_WriteData(0x00);         
 216   1              LCD_WriteData(0x07);
 217   1              LCD_WriteData(0x02);
 218   1              LCD_WriteData(0x10);
 219   1              LCD_WriteIndex(0xe1);
 220   1              LCD_WriteData(0x0f);
 221   1              LCD_WriteData(0x1b);
 222   1              LCD_WriteData(0x0f);
 223   1              LCD_WriteData(0x17);
 224   1              LCD_WriteData(0x33);
 225   1              LCD_WriteData(0x2c);
 226   1              LCD_WriteData(0x29);
 227   1              LCD_WriteData(0x2e);
 228   1              LCD_WriteData(0x30);
 229   1              LCD_WriteData(0x30);
 230   1              LCD_WriteData(0x39);
 231   1              LCD_WriteData(0x3f);
 232   1              LCD_WriteData(0x00);
 233   1              LCD_WriteData(0x07);
 234   1              LCD_WriteData(0x03);
 235   1              LCD_WriteData(0x10);  
 236   1              LCD_WriteIndex(0x2a);
 237   1              LCD_WriteData(0x00);
 238   1              LCD_WriteData(0x00+2);
 239   1              LCD_WriteData(0x00);
 240   1              LCD_WriteData(0x80+2);
C51 COMPILER V9.60.0.0   LCDDRIVER                                                         05/03/2021 21:31:15 PAGE 5   

 241   1              LCD_WriteIndex(0x2b);
 242   1              LCD_WriteData(0x00);
 243   1              LCD_WriteData(0x00+3);
 244   1              LCD_WriteData(0x00);
 245   1              LCD_WriteData(0x80+3);
 246   1              LCD_WriteIndex(0xF0);
 247   1              LCD_WriteData(0x01);
 248   1              LCD_WriteIndex(0xF6);
 249   1              LCD_WriteData(0x00);
 250   1              LCD_WriteIndex(0x3A); 
 251   1              LCD_WriteData(0x05);
 252   1              LCD_WriteIndex(0x29);
 253   1      }
 254          void LCD_SetRegion(unsigned int startX, unsigned int startY, unsigned int endX, unsigned int endY) { // ËÆ
             -æÁΩÆÊòæÁ§∫Âå∫ÂüüÔºåÂú®Ê≠§Âå∫ÂüüÂÜôÊï∞ÊçÆËá™Âä®Êç¢Ë°å
 255   1              #ifdef USE_LANDSCAPE//‰ΩøÁî®Ê®™Â±èÊ®°Âºè
 256   1              LCD_WriteIndex(0x2a);
 257   1              LCD_WriteData(0x00);
 258   1              LCD_WriteData(startX);
 259   1              LCD_WriteData(0x00);
 260   1              LCD_WriteData(endX);
 261   1      
 262   1              LCD_WriteIndex(0x2b);
 263   1              LCD_WriteData(0x00);
 264   1              LCD_WriteData(startY);
 265   1              LCD_WriteData(0x00);
 266   1              LCD_WriteData(endY);
 267   1      
 268   1      #else//Á´ñÂ±èÊ®°Âºè        
                      LCD_WriteIndex(0x2a);
                      LCD_WriteData(0x00);
                      LCD_WriteData(startX);
                      LCD_WriteData(0x00);
                      LCD_WriteData(endX);
              
                      LCD_WriteIndex(0x2b);
                      LCD_WriteData(0x00);
                      LCD_WriteData(startY);
                      LCD_WriteData(0x00);
                      LCD_WriteData(endY);        
              #endif
 281   1              LCD_WriteIndex(0x2c);
 282   1      }
 283          void putPixel(unsigned int x, unsigned int y, unsigned int color) { // Â∞Ü‰∏Ä‰∏™ÂÉèÁ¥†ËÆæ‰∏∫ÊåáÂÆöÈ¢úËâ≤
 284   1              LCD_SetRegion(x,y,x+1,y+1);
 285   1          LCD_WriteData_16Bit(color);
 286   1      }
 287          void displaySingleColour(int color) { // ÂçïËâ≤Â°´ÂÖÖÂ±èÂπï
 288   1              unsigned char i, j;
 289   1              #ifndef USE_LANDSCAPE 
                      LCD_SetRegion(0,0,SCREEN_WIDTH,SCREEN_HEIGHT);
                      for (i=0;i<SCREEN_WIDTH;i++)
                                      for (j=0;j<SCREEN_HEIGHT;++j)
                                              LCD_WriteData_16Bit(color);
                      #else
 295   1              LCD_SetRegion(0,0,SCREEN_HEIGHT,SCREEN_WIDTH);
 296   1              for (i=0;i<SCREEN_HEIGHT;i++)
 297   1                              for (j=0;j<SCREEN_WIDTH;++j)
 298   1                                      LCD_WriteData_16Bit(color);
 299   1              #endif
 300   1              
 301   1      } 
C51 COMPILER V9.60.0.0   LCDDRIVER                                                         05/03/2021 21:31:15 PAGE 6   

 302          void LCD_Fill(unsigned int startX,unsigned int startY,unsigned int endX,unsigned int endY,unsigned int col
             -or) { // Â°´ÂÖÖÊåáÂÆöÂå∫Âüü
 303   1              unsigned int i,j; 
 304   1              LCD_SetRegion(startX,startY,endX-1,endY-1);//ËÆæÁΩÆÊòæÁ§∫ËåÉÂõ¥
 305   1              for(i=startY;i<endY;i++)
 306   1              {                                                                                                                       
 307   2                      for(j=startX;j<endX;j++)
 308   2                      {
 309   3                              LCD_WriteData_16Bit(color);
 310   3                      }
 311   2              }                                                   
 312   1      }
 313          void LCD_DrawPoint(unsigned int x,unsigned int y, unsigned int color) {
 314   1              LCD_SetRegion(x,y,x,y);//ËÆæÁΩÆÂÖâÊ†á‰ΩçÁΩÆ 
 315   1              LCD_WriteData_16Bit(color);
 316   1      } 
 317                  
 318          void LCD_DrawLine(unsigned int x1, unsigned int y1, unsigned int x2, unsigned int y2, unsigned int color) 
             -{ // Áîª‰∏ÄÊù°Á∫ø
 319   1              unsigned int t; 
 320   1              int xerr=0,yerr=0,delta_x,delta_y,distance;
 321   1              int incx,incy,uRow,uCol;
 322   1              delta_x=x2-x1; //ËÆ°ÁÆóÂùêÊ†áÂ¢ûÈáè 
 323   1              delta_y=y2-y1;
 324   1              uRow=x1;//ÁîªÁ∫øËµ∑ÁÇπÂùêÊ†á
 325   1              uCol=y1;
 326   1              if(delta_x>0)incx=1; //ËÆæÁΩÆÂçïÊ≠•ÊñπÂêë 
 327   1              else if (delta_x==0)incx=0;//ÂûÇÁõ¥Á∫ø 
 328   1              else {incx=-1;delta_x=-delta_x;}
 329   1              if(delta_y>0)incy=1;
 330   1              else if (delta_y==0)incy=0;//Ê∞¥Âπ≥Á∫ø 
 331   1              else {incy=-1;delta_y=-delta_x;}
 332   1              if(delta_x>delta_y)distance=delta_x; //ÈÄâÂèñÂü∫Êú¨Â¢ûÈáèÂùêÊ†áËΩ¥ 
 333   1              else distance=delta_y;
 334   1              for(t=0;t<distance+1;t++)
 335   1              {
 336   2                      LCD_DrawPoint(uRow,uCol,color);//ÁîªÁÇπ
 337   2                      xerr+=delta_x;
 338   2                      yerr+=delta_y;
 339   2                      if(xerr>distance)
 340   2                      {
 341   3                              xerr-=distance;
 342   3                              uRow+=incx;
 343   3                      }
 344   2                      if(yerr>distance)
 345   2                      {
 346   3                              yerr-=distance;
 347   3                              uCol+=incy;
 348   3                      }
 349   2              }
 350   1      }
 351          
 352          void LCD_DrawRectangle(unsigned int x1, unsigned int y1, unsigned int x2, unsigned int y2,unsigned int col
             -or) { // ÁîªÁü©ÂΩ¢
 353   1              LCD_DrawLine(x1,y1,x2,y1,color);
 354   1              LCD_DrawLine(x1,y1,x1,y2,color);
 355   1              LCD_DrawLine(x1,y2,x2,y2,color);
 356   1              LCD_DrawLine(x2,y1,x2,y2,color);
 357   1      }
 358          
 359          void LCD_DrawCircle(unsigned int x0,unsigned int y0,unsigned int r,unsigned int color) { // ÁîªÂúÜ
 360   1              int a,b;
C51 COMPILER V9.60.0.0   LCDDRIVER                                                         05/03/2021 21:31:15 PAGE 7   

 361   1              a=0;b=r;          
 362   1              while(a<=b)
 363   1              {
 364   2                      LCD_DrawPoint(x0-b,y0-a,color);             //3           
 365   2                      LCD_DrawPoint(x0+b,y0-a,color);             //0           
 366   2                      LCD_DrawPoint(x0-a,y0+b,color);             //1                
 367   2                      LCD_DrawPoint(x0-a,y0-b,color);             //2             
 368   2                      LCD_DrawPoint(x0+b,y0+a,color);             //4               
 369   2                      LCD_DrawPoint(x0+a,y0-b,color);             //5
 370   2                      LCD_DrawPoint(x0+a,y0+b,color);             //6 
 371   2                      LCD_DrawPoint(x0-b,y0+a,color);             //7
 372   2                      a++;
 373   2                      if((a*a+b*b)>(r*r))//Âà§Êñ≠Ë¶ÅÁîªÁöÑÁÇπÊòØÂê¶ËøáËøú
 374   2                      {
 375   3                              b--;
 376   3                      }
 377   2              }
 378   1      }
 379          
 380          void LCD_ShowPicture(unsigned int x,unsigned int y,unsigned int length,unsigned int width)
 381          {
 382   1              unsigned int i,j,k=0;
 383   1              LCD_SetRegion(x,y,x+length-1,y+width-1);
 384   1              for(i=0;i<length;i++)
 385   1              {
 386   2                      for(j=0;j<width;j++)
 387   2                      {
 388   3                              LCD_WriteData(picture1[k*2]);
 389   3                              LCD_WriteData(picture1[k*2+1]);
 390   3                              k++;
 391   3                      }
 392   2              }                       
 393   1      }
 394          
 395          unsigned char code picture1[]=    { 0X10,0X10,0X00,0X64,0X00,0X64,0X01,0X39,
 396          0XCE,0X3F,0XCE,0X3F,0XCE,0X3F,0XCE,0X3F,0XCE,0X3F,0XCE,0X3F,0XCE,0X3F,0XCE,0X3F,
 397          0XCE,0X3F,0XCE,0X3F,0XCE,0X3F,0XCE,0X3F,0XCE,0X3F,0XCE,0X3F,0XCE,0X3F,0XCE,0X3F,
 398          0XCE,0X3F,0XCE,0X3F,0XCE,0X3F,0XCE,0X3F,0XCE,0X3F,0XCE,0X3F,0XCE,0X3F,0XCE,0X3F,
 399          0XCE,0X3F,0XCE,0X3F,0XCE,0X3F,0XCE,0X3F,0XCE,0X3F,0XCE,0X3F,0XCE,0X3F,0XCE,0X3F,
 400          0XCE,0X3F,0XCE,0X3F,0XCE,0X3F,0XCE,0X3F,0XCE,0X3F,0XCE,0X3F,0XCE,0X3F,0XCE,0X3F,
 401          0XCE,0X3F,0XCE,0X3F,0XCE,0X3F,0XCE,0X3F,0XCE,0X3F,0XCE,0X5F,0XCE,0X3F,0XCE,0X3F,
 402          0XCE,0X3F,0XCE,0X3F,0XCE,0X3F,0XCE,0X3F,0XCE,0X3F,0XCE,0X5F,0XCE,0X5F,0XCE,0X3F,
 403          0XCE,0X3F,0XCE,0X3F,0XCE,0X3F,0XD6,0X3F,0XCE,0X3F,0XCE,0X3F,0XCE,0X3F,0XCE,0X5F,
 404          0XCE,0X3F,0XCE,0X3F,0XCE,0X3F,0XCE,0X3F,0XCE,0X3F,0XCE,0X3F,0XCE,0X3F,0XCE,0X3F,
 405          0XCE,0X3F,0XCE,0X3F,0XCE,0X3F,0XCE,0X3F,0XCE,0X3F,0XCE,0X3F,0XCE,0X3F,0XCE,0X3F,
 406          0XCE,0X3F,0XCE,0X3F,0XCE,0X3F,0XCE,0X3F,0XCE,0X3F,0XCE,0X3F,0XCE,0X3F,0XCE,0X3F,
 407          0XD6,0X5F,0XCE,0X3F,0XCE,0X3F,0XCE,0X3F,0XCE,0X3F,0XC6,0X3F,0XCD,0XFD,0X00,0X24,
 408          0X7B,0X92,0XCE,0X3F,0XCE,0X3F,0XCE,0X3F,0XCE,0X3F,0XCE,0X3F,0XCE,0X3F,0XCE,0X3F,
 409          0XCE,0X3F,0XCE,0X3F,0XCE,0X3F,0XCE,0X3F,0XCE,0X3F,0XCE,0X3F,0XCE,0X3F,0XCE,0X3F,
 410          0XCE,0X3F,0XCE,0X3F,0XCE,0X3F,0XCE,0X3F,0XCE,0X3F,0XCE,0X3F,0XCE,0X3F,0XCE,0X3F,
 411          0XCE,0X3F,0XCE,0X3F,0XCE,0X3F,0XCE,0X3F,0XCE,0X3F,0XCE,0X3F,0XCE,0X3F,0XCE,0X3F,
 412          0XCE,0X3F,0XCE,0X3F,0XCE,0X3F,0XCE,0X3F,0XCE,0X3F,0XCE,0X3F,0XCE,0X3F,0XCE,0X3F,
 413          0XCE,0X3F,0XCE,0X3F,0XCE,0X3F,0XCE,0X3F,0XCE,0X3F,0XCE,0X3F,0XCE,0X3F,0XCE,0X3F,
 414          0XCE,0X3F,0XCE,0X5F,0XCE,0X3F,0XCE,0X3F,0XCE,0X3F,0XCE,0X3F,0XCE,0X3F,0XCE,0X3F,
 415          0XCE,0X3F,0XCE,0X5F,0XCE,0X5F,0XCE,0X3F,0XCE,0X3F,0XCE,0X3F,0XCE,0X3F,0XCE,0X3F,
 416          0XCE,0X3F,0XCE,0X1F,0XCE,0X1F,0XCE,0X3F,0XCE,0X3F,0XCE,0X3F,0XCE,0X3F,0XCE,0X3F,
 417          0XCE,0X3F,0XCE,0X3F,0XCE,0X3F,0XCE,0X3F,0XCE,0X3F,0XCE,0X3F,0XCE,0X3F,0XCE,0X3F,
 418          0XCE,0X3F,0XCE,0X3F,0XCE,0X3F,0XCE,0X3F,0XCE,0X3F,0XCE,0X3F,0XCE,0X3F,0XCE,0X3F,
 419          0XCE,0X3F,0XCE,0X3F,0XCE,0X3F,0XCE,0X3F,0XCE,0X3F,0XCE,0X3F,0XCE,0X3F,0XCE,0X3F,
 420          0XCE,0X3F,0XCE,0X3F,0XCE,0X3F,0X7B,0XD4,0XCE,0X3E,0XCE,0X1F,0XCE,0X3F,0XCE,0X3F,
 421          0XCE,0X3F,0XCE,0X3F,0XCE,0X3F,0XCE,0X3F,0XCE,0X3F,0XCE,0X3F,0XCE,0X3F,0XCE,0X3F,
 422          0XCE,0X3F,0XCE,0X3F,0XCE,0X3F,0XCE,0X3F,0XCE,0X3F,0XCE,0X3F,0XCE,0X3F,0XCE,0X3F,
C51 COMPILER V9.60.0.0   LCDDRIVER                                                         05/03/2021 21:31:15 PAGE 8   

 423          0XCE,0X3F,0XCE,0X3F,0XCE,0X3F,0XCE,0X3F,0XCE,0X3F,0XCE,0X3F,0XCE,0X3F,0XCE,0X3F,
 424          0XCE,0X3F,0XCE,0X3F,0XCE,0X3F,0XCE,0X3F,0XCE,0X3F,0XCE,0X3F,0XCE,0X3F,0XCE,0X3F,
 425          0XCE,0X3F,0XCE,0X5F,0XCE,0X3F,0XCE,0X3F,0XCE,0X3F,0XCE,0X3F,0XCE,0X3F,0XCE,0X3F,
 426          0XCE,0X3F,0XCE,0X3F,0XCE,0X3F,0XCE,0X5F,0XCE,0X3F,0XCE,0X5F,0XCE,0X5F,0XCE,0X3F,
 427          0XCE,0X3F,0XCE,0X3F,0XCE,0X3F,0XCE,0X3F,0XCE,0X5F,0XCE,0X5F,0XCE,0X5F,0XCE,0X3F,
 428          0XCE,0X3F,0XCE,0X3F,0XCE,0X3F,0XCE,0X3F,0XCE,0X5F,0XCE,0X3F,0XCE,0X5F,0XCE,0X5F,
 429          0XCE,0X3F,0XCE,0X3F,0XCE,0X3F,0XCE,0X1F,0XCE,0X3F,0XCE,0X3F,0XCE,0X1F,0XCE,0X1F,
 430          0XCE,0X1F,0XCE,0X1F,0XCE,0X3E,0XCE,0X3F,0XCE,0X3F,0XCE,0X3F,0XCE,0X3F,0XCE,0X3F,
 431          0XCE,0X3F,0XCE,0X3F,0XCE,0X3F,0XCE,0X3F,0XCE,0X3F,0XCE,0X3F,0XCE,0X3F,0XCE,0X3F,
 432          0XCE,0X3F,0XCE,0X3F,0XCE,0X3F,0XCE,0X3F,0XCE,0X3F,0XCE,0X3E,0XCE,0X3E,0XCE,0X3F,
 433          0XCE,0X3F,0XCE,0X1F,0XCE,0X3F,0XCE,0X3F,0XCE,0X3F,0XCE,0X3F,0XCE,0X3F,0XCE,0X3F,
 434          0XCE,0X3F,0XCE,0X3F,0XCE,0X3F,0XCE,0X3F,0XCE,0X3F,0XCE,0X3F,0XCE,0X3F,0XCE,0X3F,
 435          0XCE,0X3F,0XCE,0X3F,0XCE,0X3F,0XCE,0X3F,0XCE,0X3F,0XCE,0X3F,0XCE,0X5F,0XCE,0X3F,
 436          0XCE,0X3F,0XCE,0X3F,0XCE,0X3F,0XCE,0X3F,0XCE,0X5F,0XCE,0X3F,0XCE,0X3E,0XCE,0X1F,
 437          0XCE,0X5F,0XD6,0X5E,0XCE,0X5F,0XCE,0X3F,0XCE,0X3F,0XCE,0X1F,0XCE,0X3F,0XCE,0X3F,
 438          0XCE,0X1F,0XCE,0X3F,0XCE,0X3F,0XCE,0X3F,0XCE,0X3F,0XCE,0X3F,0XCE,0X3F,0XD6,0X5F,
 439          0XD6,0X5F,0XD6,0X5F,0XD6,0X5F,0XCE,0X5E,0XCE,0X5F,0XD6,0X5F,0XD6,0X5F,0XD6,0X5F,
 440          0XD6,0X5F,0XD6,0X7F,0XD6,0X7F,0XD6,0X7F,0XD6,0X5F,0XD6,0X5F,0XD6,0X5F,0XD6,0X7F,
 441          0XCE,0X5F,0XD6,0X7F,0XD6,0X7F,0XD6,0X7F,0XD6,0X7F,0XD6,0X7F,0XD6,0X9F,0XCE,0X5F,
 442          0XAC,0XBB,0X7B,0X16,0X6A,0X96,0X5A,0X14,0X6A,0XB6,0X83,0XB8,0XBD,0X9E,0XD6,0X5F,
 443          0XCE,0X3F,0XCE,0X7F,0XCE,0X5F,0XCE,0X3F,0XCE,0X5F,0XCE,0X3F,0XCE,0X5F,0XCE,0X5E,
 444          0XCE,0X3F,0XCE,0X3F,0XCE,0X3F,0XCE,0X3F,0XCE,0X3F,0XCE,0X3F,0XCE,0X3F,0XCE,0X3F,
 445          0XCE,0X3F,0XD6,0X3F,0XCE,0X3F,0XCE,0X3F,0XCE,0X3F,0XCE,0X3F,0XCE,0X3F,0XCE,0X3F,
 446          0XCE,0X3F,0XCE,0X3F,0XCE,0X3F,0XCE,0X3F,0XCE,0X3F,0XCE,0X3F,0XCE,0X3F,0XCE,0X3F,
 447          0XCE,0X3F,0XCE,0X3F,0XCE,0X3F,0XCE,0X3F,0XCE,0X3F,0XCE,0X1F,0XCE,0X1F,0XCE,0X3F,
 448          0XCE,0X5F,0XCE,0X5F,0XCE,0X3F,0XCE,0X3F,0XCE,0X3F,0XCE,0X3F,0XCE,0X1F,0XC5,0XDF,
 449          0XAD,0X1D,0X94,0X5A,0X8B,0XD9,0X8B,0XB9,0X9C,0X7B,0XC5,0XDF,0XCE,0X3F,0XD6,0X7F,
 450          0XD6,0X7F,0XD6,0XBF,0XD6,0XBF,0XD6,0XBF,0XDE,0XFF,0XDE,0XDF,0XDE,0XFF,0XDF,0X1F,
 451          0XDE,0XFF,0XDF,0X1F,0XDF,0X1F,0XE7,0X1F,0XDE,0XDF,0XD6,0X9F,0XD6,0X5F,0XCE,0X5E,
 452          0XE6,0XFF,0XE7,0X3F,0XE7,0X5F,0XE7,0X7F,0XEF,0X7F,0XE7,0X5F,0XE7,0X5F,0XE7,0X5F,
 453          0XE7,0X5F,0XEF,0X5F,0XEF,0X5F,0XE7,0X7F,0XE7,0X7F,0XEF,0X7F,0XEF,0X9F,0XEF,0X7F,
 454          0XE7,0X5F,0XE7,0X5F,0XD6,0X5E,0X6A,0XF6,0X7B,0X59,0X9B,0XFF,0X9C,0X3F,0XA4,0X5F,
 455          0X9C,0X3F,0X83,0X9B,0X6A,0XD7,0XA4,0XDB,0XDE,0XFF,0XDF,0X1F,0XDF,0X1F,0XDF,0X1F,
 456          0XDE,0XFF,0XDE,0XDF,0XDE,0XFF,0XDE,0XFF,0XDE,0XDF,0XDE,0XDE,0XD6,0X9E,0XD6,0X9E,
 457          0XD6,0X5F,0XCE,0X5F,0XCE,0X5F,0XCE,0X5F,0XCE,0X3F,0XCE,0X3E,0XCE,0X3E,0XCE,0X3E,
 458          0XCE,0X3E,0XCE,0X3F,0XCE,0X5F,0XCE,0X3F,0XCE,0X3F,0XCE,0X3F,0XCE,0X3F,0XCE,0X3F,
 459          0XCE,0X3F,0XCE,0X3F,0XCE,0X3F,0XCE,0X3F,0XCE,0X3F,0XCE,0X3F,0XCE,0X3F,0XCE,0X3F,
 460          0XCE,0X3F,0XCE,0X3F,0XCE,0X3F,0XCE,0X3F,0XCE,0X3F,0XCE,0X5F,0XCE,0X5E,0XD6,0X7F,
 461          0XD6,0X5F,0X94,0X3A,0X6A,0XD7,0X62,0X57,0X6A,0XD9,0X7B,0X5B,0X83,0X7C,0X93,0XBD,
 462          0X6A,0XD9,0X51,0XF5,0X6A,0XF5,0XDE,0XDF,0XE7,0X5F,0XE7,0X7F,0XE7,0X7F,0XE7,0X9F,
 463          0XE7,0X7F,0XE7,0X7F,0XE7,0X7F,0XE7,0X3F,0XDE,0XFF,0XBD,0X9B,0X94,0X18,0X72,0XF4,
 464          0X8B,0XB8,0X83,0X76,0X8B,0X97,0X8B,0XB7,0X6A,0XF4,0X7B,0X75,0XC5,0XDC,0XE7,0X5F,
 465          0XE7,0X3F,0XAD,0X1A,0XA4,0XB9,0X7B,0X55,0X73,0X15,0X83,0XB7,0X62,0XB3,0X7B,0X55,
 466          0X7B,0X75,0X9C,0X99,0XC5,0XFD,0XDE,0XFF,0XE7,0X7F,0XDF,0X1F,0X72,0XD6,0X9C,0X3F,
 467          0X9C,0X5E,0X9C,0X5F,0X9C,0X5F,0X9C,0X5F,0X9C,0X5F,0X9C,0X5F,0XA4,0X7F,0X8B,0X9B,
 468          0X8B,0XDB,0X83,0XB8,0X8B,0XD9,0X9C,0X9C,0X95,0X1D,0X9D,0X3C,0XCE,0XBF,0XE7,0X7F,
 469          0XEF,0X7F,0XEF,0X9F,0XE7,0X7F,0XE7,0X5E,0XE7,0X7F,0XE7,0X5F,0XE7,0X3F,0XE7,0X3F,
 470          0XDF,0X1F,0XDE,0XFF,0XDE,0XDF,0XD6,0X9E,0XD6,0X9E,0XCE,0X5F,0XCE,0X5E,0XCE,0X3F,
 471          0XCE,0X5F,0XCE,0X5F,0XCE,0X3F,0XCE,0X3F,0XCE,0X3F,0XCE,0X3F,0XCE,0X1E,0XCE,0X3F,
 472          0XCE,0X1E,0XCE,0X5F,0XCE,0X5E,0XD6,0X7F,0XCE,0X7F,0XD6,0XBE,0XD6,0XDF,0XD6,0XFF,
 473          0XD6,0XFF,0XDF,0X1F,0XE7,0X5E,0XDE,0XFF,0X6A,0XD6,0X83,0X9B,0X9C,0X3E,0XAC,0X5F,
 474          0XA4,0X5F,0XA4,0X5F,0XA4,0X7F,0XA4,0X7F,0XA4,0X5F,0XA4,0X7F,0X8B,0XBC,0X51,0XF3,
 475          0XCE,0X5E,0XE7,0X7F,0XE7,0X7F,0XE7,0X9F,0XE7,0X9F,0XE7,0X3F,0XAC,0XFA,0X83,0XB7,
 476          0X8B,0XD7,0XC5,0XBC,0XCE,0X3E,0XD6,0X3F,0XD6,0X5F,0XD6,0X7F,0XD6,0X7F,0XD6,0X5F,
 477          0XD6,0X3F,0XCE,0X1F,0X9C,0X7A,0XA4,0X9A,0X9C,0X59,0XB5,0X3C,0XCD,0XDF,0XCD,0XFF,
 478          0XCE,0X1F,0XD6,0X3F,0XD6,0X3F,0XCE,0X1F,0XC5,0XFF,0XBD,0X7D,0X7B,0X76,0X72,0XF6,
 479          0X94,0X39,0XA4,0XDB,0X9B,0XFD,0XA4,0X3F,0X9C,0X7F,0XA4,0X7F,0XA4,0X7F,0X9C,0X5F,
 480          0X9C,0X5F,0X9C,0X5F,0X8B,0XBE,0X9C,0X3F,0XA4,0X7F,0X9C,0X7E,0X9C,0X7E,0X73,0X3A,
 481          0X4A,0X37,0X7C,0X9D,0X74,0X7C,0XA5,0X9D,0XE7,0X5F,0XE7,0X9F,0XEF,0X9F,0XEF,0X7F,
 482          0XEF,0X9F,0XEF,0X9F,0XEF,0XBF,0XEF,0X9F,0XEF,0X9F,0XEF,0X7F,0XEF,0X7F,0XEF,0X7F,
 483          0XE7,0X5F,0XE7,0X5F,0XE7,0X3F,0XE7,0X3F,0XCE,0X3F,0XCE,0X3E,0XCE,0X3E,0XD6,0X7E,
 484          0XD6,0X7E,0XDE,0XBF,0XDE,0XDF,0XDE,0XFE,0XDF,0X1F,0XE7,0X3F,0XE7,0X3F,0XE7,0X5F,
C51 COMPILER V9.60.0.0   LCDDRIVER                                                         05/03/2021 21:31:15 PAGE 9   

 485          0XC6,0XDF,0X9D,0XBD,0X7C,0XDC,0X8D,0X3E,0X84,0XFD,0X84,0X9B,0XC6,0X5F,0X8C,0X5A,
 486          0X9C,0X3D,0X9C,0X5F,0XA4,0X5F,0XAC,0X5F,0XA4,0X5F,0XA4,0X5F,0XA4,0X7F,0XA4,0X7F,
 487          0XA4,0X7F,0XA4,0X7F,0X9C,0X7F,0X9C,0X3E,0X52,0X15,0XC5,0XFD,0XE7,0X9F,0XE7,0X5F,
 488          0XBD,0XBC,0X94,0X18,0XAC,0XFB,0XD6,0X5F,0XD6,0X5E,0XDE,0X9F,0XDE,0X9F,0XD6,0X5F,
 489          0XD6,0X5F,0XD6,0X5F,0XD6,0X5F,0XCE,0X5F,0XCE,0X3F,0XAD,0X1C,0XAC,0XDC,0XC5,0X9F,
 490          0X9C,0X5A,0X9C,0X3A,0XB4,0XFC,0XD6,0X1F,0XD6,0X5F,0XD6,0X5F,0XD6,0X5F,0XD6,0X5F,
 491          0XCE,0X5F,0XD6,0X5F,0XD6,0X5F,0XD6,0X3F,0XC5,0X9F,0X6A,0XF6,0X72,0XD9,0X9B,0XFE,
 492          0XA4,0X5F,0XA4,0X5F,0XA4,0X5F,0X9C,0X5F,0X9C,0X3F,0X7B,0X5C,0X93,0XFE,0X9C,0X5F,
 493          0X9C,0X7F,0XA4,0X7F,0XA4,0X7F,0XA4,0X5F,0X9C,0X3F,0X5A,0X97,0X63,0X9B,0X7C,0XBE,
 494          0XAD,0XDE,0XE7,0X9F,0XEF,0X7F,0XEF,0X9F,0XEF,0X9F,0XEF,0X9F,0XEF,0X9F,0XEF,0X9F,
 495          0XEF,0X9F,0XEF,0X9F,0XEF,0X9F,0XEF,0XBF,0XEF,0X9F,0XEF,0X9F,0XEF,0X9F,0XEF,0X9F,
 496          0XDE,0XDF,0XDE,0XFF,0XDE,0XFE,0XE7,0X5F,0XE7,0X5F,0XEF,0X9F,0XEF,0X7F,0XEF,0X9F,
 497          0XEF,0X9F,0XEF,0X9F,0XEF,0X9F,0XBE,0X7F,0X7C,0XBD,0X8D,0XDE,0X9E,0X3F,0X9D,0XFF,
 498          0X6B,0XFA,0X42,0X36,0X6B,0X3A,0X51,0XF6,0X8B,0X9D,0X8B,0X9D,0X7B,0X5C,0X7B,0X1B,
 499          0X73,0X1B,0X93,0XDE,0X9C,0X7F,0X9C,0X5E,0XA4,0X7F,0XA4,0X7F,0X9C,0X7F,0X9C,0X5F,
 500          0X9C,0X1E,0X6A,0XB5,0XCE,0X1E,0X8B,0XF8,0XBD,0X7D,0XD6,0X5F,0XDE,0XBF,0XDE,0XBE,
 501          0XD6,0X9E,0XD6,0X9F,0XCE,0X5F,0XD6,0X7F,0XCE,0X3F,0XD6,0X5F,0XD6,0X5F,0XD6,0X5F,
 502          0XD6,0X5F,0XCE,0X3F,0XC5,0X9E,0XB5,0X5D,0XCD,0XFF,0XCE,0X3F,0XD6,0X5F,0XD6,0X5F,
 503          0XCE,0X5F,0XD6,0X5F,0XD6,0X7F,0XD6,0X5F,0XD6,0X5F,0XD6,0X5F,0XD6,0X5F,0XD6,0X5F,
 504          0XCE,0X5F,0XD6,0X3F,0XBD,0X9E,0X83,0X79,0X83,0X9B,0X9C,0X1F,0XA4,0X5F,0X9C,0X5F,
 505          0X8B,0XBE,0X83,0X7D,0X9C,0X3F,0X9C,0X5F,0X9C,0X7F,0XA4,0X7F,0XA4,0X7F,0X9C,0X3F,
 506          0X9C,0X3F,0X9C,0X5F,0X4A,0X37,0X84,0XFE,0X6C,0X7C,0XCE,0XFF,0XEF,0X9F,0XEF,0X9F,
 507          0XEF,0X9F,0XEF,0X9F,0XEF,0X9F,0XEF,0X9F,0XEF,0X9F,0XEF,0X9F,0XEF,0X9F,0XEF,0XBF,
 508          0XEF,0X9F,0XEF,0X9F,0XEF,0X9F,0XEF,0X9F,0XEF,0X9F,0XEF,0X9F,0XEF,0X9F,0XEF,0X9F,
 509          0XEF,0X9F,0XEF,0X9F,0XEF,0X9F,0XE7,0X9E,0XEF,0XBF,0XE7,0X5F,0XBE,0X7E,0X74,0X7C,
 510          0X8D,0X7F,0X9E,0X7F,0X95,0X7E,0X52,0X97,0X83,0X9B,0XA4,0X5F,0X9C,0X3F,0X9C,0X7F,
 511          0XA4,0X9F,0XA4,0X5F,0X9C,0X5F,0X9C,0X5F,0X94,0X1E,0X72,0XFB,0X7B,0X5C,0X9C,0X5F,
 512          0X9C,0X7F,0X9C,0X7F,0X9C,0X5F,0X9C,0X5F,0XA4,0X7F,0X62,0X77,0XA4,0X9C,0XCE,0X1F,
 513          0XD6,0X5F,0XD6,0X7E,0XD6,0X7E,0XD6,0X9F,0XD6,0X7F,0XD6,0X7F,0XD6,0X5F,0XCE,0X5F,
 514          0XCE,0X5F,0XD6,0X7F,0XD6,0X5F,0XD6,0X7F,0XD6,0X7F,0XD6,0X7F,0XD6,0X5F,0XD6,0X5F,
 515          0XD6,0X5F,0XD6,0X5F,0XD6,0X5F,0XD6,0X5F,0XD6,0X5F,0XD6,0X5F,0XD6,0X5F,0XD6,0X5F,
 516          0XD6,0X5F,0XD6,0X5F,0XD6,0X7F,0XD6,0X5F,0XD6,0X5F,0XCE,0X5F,0XD6,0X5F,0XD6,0X3F,
 517          0XC5,0XBF,0X83,0X7A,0X94,0X1D,0XA4,0X5F,0X7A,0XFB,0X9C,0X3F,0X9C,0X5F,0X9C,0X7F,
 518          0X9C,0X7F,0XA4,0X7F,0X9C,0X7F,0X9C,0X5F,0X9C,0X3F,0X9C,0X3F,0X6B,0X1B,0X52,0XD8,
 519          0X84,0XFE,0X95,0X3B,0XF7,0X9F,0XEF,0X7F,0XEF,0X9F,0XEF,0X9F,0XEF,0X9F,0XEF,0X9F,
 520          0XEF,0X9F,0XEF,0X9F,0XEF,0X9F,0XEF,0X9F,0XEF,0X9F,0XEF,0X9F,0XEF,0X9F,0XEF,0X9F,
 521          0XEF,0X9F,0XEF,0X9F,0XEF,0X9F,0XEF,0X9F,0XEF,0X9F,0XF7,0X9F,0XF7,0X9F,0XF7,0X7F,
 522          0XD5,0XFC,0X93,0XF6,0X74,0X3B,0X85,0X3F,0X8D,0X9F,0X8D,0X1E,0X62,0XB9,0X9C,0X3F,
 523          0X9C,0X5F,0XA4,0X5F,0X9C,0X5F,0X9C,0X5F,0X9C,0X5F,0X9C,0X5F,0X9C,0X5F,0X9C,0X5F,
 524          0X9C,0X5F,0X9C,0X7F,0X73,0X1A,0X83,0X5D,0X9C,0X5F,0XA4,0X5F,0XA4,0X7F,0XA4,0X5F,
 525          0X72,0XF8,0XBD,0X5E,0XD6,0X9F,0XCE,0X5E,0XD6,0X7E,0XDE,0X9F,0XD6,0X7F,0XCE,0X5F,
 526          0XD6,0X5F,0XD6,0X7F,0XD6,0X7F,0XD6,0X7F,0XD6,0X5F,0XD6,0X7F,0XD6,0X7F,0XD6,0X7F,
 527          0XD6,0X5F,0XD6,0X7F,0XCE,0X5F,0XD6,0X5F,0XD6,0X5F,0XD6,0X5F,0XD6,0X5F,0XD6,0X5F,
 528          0XD6,0X5F,0XD6,0X5F,0XCE,0X5F,0XD6,0X5F,0XD6,0X5F,0XD6,0X5F,0XCE,0X5F,0XD6,0X5F,
 529          0XD6,0X5F,0XD6,0X5F,0XD6,0X5F,0XD6,0X5F,0XCE,0X5F,0XCE,0X1F,0X93,0XFA,0X73,0X19,
 530          0X9C,0X1E,0XA4,0X5F,0X9C,0X5F,0X9C,0X5F,0X9C,0X5F,0X9C,0X5F,0XA4,0X7F,0X9C,0X7F,
 531          0X9C,0X5F,0X93,0XFE,0X8B,0XBE,0X41,0XD6,0X8D,0X5F,0X6B,0XB7,0XBD,0X39,0XDE,0XDD,
 532          0XEF,0X9F,0XEF,0X9F,0XEF,0X9F,0XEF,0X9F,0XEF,0X9F,0XF7,0X9F,0XF7,0X9F,0XEF,0X9F,
 533          0XEF,0X9F,0XEF,0X9F,0XEF,0X9F,0XEF,0X9F,0XEF,0X9F,0XEF,0X9F,0XEF,0X9F,0XEF,0X9F,
 534          0XE7,0X9F,0XEF,0X7F,0XEE,0XFF,0XAC,0XB7,0XAB,0XF6,0XBC,0XDB,0X74,0X9C,0X8D,0X9F,
 535          0X8C,0XFF,0X4A,0X16,0X9C,0X5F,0XA4,0X3F,0X9C,0X5F,0XA4,0X5F,0X9C,0X5F,0X9C,0X7F,
 536          0X9C,0X5F,0X9C,0X7F,0XA4,0X7F,0XA4,0X7F,0X9C,0X5F,0X9C,0X7F,0X9C,0X3F,0X72,0XDB,
 537          0X83,0X9D,0XA4,0X7F,0X9C,0X5E,0X9C,0X5C,0XC5,0XDF,0XD6,0X9F,0XD6,0X5E,0XD6,0X9F,
 538          0XD6,0X7F,0XCE,0X5F,0XCE,0X5F,0XCE,0X5F,0XD6,0X5F,0XD6,0X7F,0XD6,0X7F,0XD6,0X5F,
 539          0XD6,0X5F,0XD6,0X7F,0XD6,0X7F,0XD6,0X7F,0XD6,0X5F,0XD6,0X7F,0XCE,0X5F,0XD6,0X5F,
 540          0XD6,0X5F,0XD6,0X5F,0XD6,0X5F,0XD6,0X5F,0XD6,0X5F,0XD6,0X5F,0XD6,0X5F,0XD6,0X5F,
 541          0XD6,0X5F,0XD6,0X5F,0XD6,0X5F,0XD6,0X5F,0XD6,0X5F,0XD6,0X5F,0XD6,0X5F,0XD6,0X7F,
 542          0XD6,0X5F,0XD6,0X5F,0XCE,0X3F,0XB5,0X7D,0X62,0X95,0X7B,0X3A,0XA4,0X7F,0X9C,0X5F,
 543          0X9C,0X5F,0XA4,0X7F,0XA4,0X7F,0X9C,0X7F,0X9C,0X1F,0X93,0XDF,0X93,0XDE,0X41,0XF6,
 544          0X85,0X3E,0X7C,0X5A,0XB4,0XB9,0XB4,0X78,0XB4,0XD8,0XEF,0X1F,0XEF,0X7F,0XEF,0X9F,
 545          0XEF,0X9F,0XF7,0X9F,0XF7,0X9F,0XEF,0X9F,0XEF,0X9F,0XEF,0X9F,0XEF,0X9F,0XEF,0X9F,
 546          0XEF,0X9F,0XEF,0X9F,0XEF,0X9F,0XEF,0X9F,0XEF,0X7F,0XE6,0X9D,0XBC,0XB7,0XB4,0X77,
C51 COMPILER V9.60.0.0   LCDDRIVER                                                         05/03/2021 21:31:15 PAGE 10  

 547          0XC4,0XD9,0XB4,0X79,0X84,0XDD,0X95,0X7F,0X4A,0X56,0X83,0X9C,0XA4,0X5F,0X9C,0X5F,
 548          0X9C,0X5F,0X9C,0X3F,0X9C,0X5F,0X9C,0X5F,0X9C,0X7F,0X9C,0X5F,0X9C,0X5F,0X9C,0X5F,
 549          0X9C,0X5F,0X9C,0X7F,0X9C,0X3F,0X9C,0X5F,0X5A,0X57,0X9C,0X3E,0XBD,0XBE,0XCE,0X5E,
 550          0XD6,0X9F,0XD6,0X7F,0XDE,0XBF,0XD6,0X7F,0XD6,0X5F,0XD6,0X5F,0XD6,0X7F,0XCE,0X3F,
 551          0XD6,0X5F,0XD6,0X5F,0XD6,0X5F,0XCE,0X5F,0XCE,0X1F,0XD6,0X5F,0XD6,0X7F,0XD6,0X7F,
 552          0XD6,0X5F,0XD6,0X5F,0XD6,0X7F,0XD6,0X7F,0XD6,0X5F,0XD6,0X5F,0XD6,0X5F,0XD6,0X5F,
 553          0XD6,0X5F,0XD6,0X5F,0XD6,0X5F,0XD6,0X5F,0XD6,0X5F,0XD6,0X5F,0XD6,0X5F,0XD6,0X5F,
 554          0XD6,0X5F,0XD6,0X5F,0XD6,0X5F,0XD6,0X5F,0XD6,0X5F,0XD6,0X5F,0XD6,0X5F,0XD6,0X5F,
 555          0XCE,0X1F,0X93,0XFB,0X5A,0X77,0X94,0X1E,0X9C,0X3F,0X9C,0X7F,0X9C,0X7F,0X9C,0X3F,
 556          0X8B,0XDE,0X8B,0XDE,0X8B,0XBE,0X51,0XF5,0X8C,0XBD,0X94,0XDC,0XAC,0X58,0XBC,0XB8,
 557          0XBC,0XB8,0X9B,0XF4,0XD6,0X3B,0XEF,0X7F,0XEF,0X9F,0XF7,0X9F,0XF7,0X9F,0XEF,0X9F,
 558          0XEF,0X9F,0XEF,0X9F,0XEF,0X9F,0XEF,0X9F,0XE7,0X9F,0XEF,0X9F,0XE7,0XBF,0XEF,0X9F,
 559          0XCD,0X7A,0XBC,0X97,0XCD,0X19,0XBC,0X99,0XBC,0XD9,0XB4,0XD9,0X8D,0X3D,0X6C,0X1C,
 560          0X72,0XFA,0X8B,0XDD,0XA4,0X5F,0X9C,0X7F,0XA4,0X5F,0XA4,0X5F,0X9C,0X5F,0XA4,0X7F,
 561          0XA4,0X7F,0X9C,0X5F,0XA4,0X7F,0XA4,0X5F,0X9C,0X5F,0X9C,0X5E,0X9C,0X3F,0X8B,0XBC,
 562          0XA4,0X9C,0XCE,0X3F,0XCE,0X3E,0XD6,0X7F,0XD6,0X7E,0XD6,0X5F,0XD6,0X5F,0XD6,0X5F,
 563          0XD6,0X5F,0XD6,0X5F,0XD6,0X5F,0XD6,0X5F,0XD6,0X5F,0XCE,0X5F,0XCE,0X3F,0XAC,0XDD,
 564          0XB5,0X3C,0XD6,0X5F,0XD6,0X5F,0XD6,0X5F,0XD6,0X7F,0XD6,0X5F,0XD6,0X5F,0XD6,0X5F,
 565          0XD6,0X5F,0XD6,0X7F,0XD6,0X7F,0XD6,0X7F,0XD6,0X5F,0XD6,0X5F,0XD6,0X5F,0XD6,0X5F,
 566          0XD6,0X5F,0XD6,0X5F,0XD6,0X5F,0XD6,0X5F,0XD6,0X5F,0XD6,0X5F,0XD6,0X5F,0XD6,0X7F,
 567          0XD6,0X5F,0XD6,0X5F,0XD6,0X5F,0XD6,0X7F,0XD6,0X7F,0XCE,0X3F,0XA4,0XBC,0X62,0X77,
 568          0X94,0X1E,0X9C,0X5F,0X9C,0X3F,0X93,0XDE,0X8B,0XDE,0X8B,0XFE,0X8B,0XDE,0X7B,0X59,
 569          0X7B,0X36,0XDE,0XDF,0XDE,0X9D,0X9B,0XB4,0XC4,0XB9,0XCC,0XD9,0XAC,0X36,0XD6,0X1B,
 570          0XF7,0X9F,0XEF,0XBF,0XEF,0X9F,0XEF,0X9F,0XEF,0X9F,0XEF,0X9F,0XEF,0X9F,0XEF,0X9F,
 571          0XE7,0X9F,0XEF,0X9F,0XF7,0X9F,0XCD,0XBA,0XB4,0X56,0XDD,0X7B,0XCC,0XD9,0XC4,0XB9,
 572          0XAC,0X37,0XEE,0XFE,0XC6,0X9F,0X63,0X7B,0X8B,0XBD,0X8B,0XDD,0XA4,0X5F,0X9C,0X5F,
 573          0XA4,0X7F,0XA4,0X7F,0XA4,0X7F,0X9C,0X7F,0XA4,0X7F,0X9C,0X5F,0XA4,0X5F,0XA4,0X5F,
 574          0X9C,0X5F,0X8B,0XBD,0X83,0XBB,0XC5,0XDF,0XD6,0X9F,0XD6,0X7E,0XD6,0X5F,0XD6,0X5F,
 575          0XD6,0X5F,0XD6,0X5F,0XD6,0X5F,0XD6,0X5F,0XD6,0X5F,0XD6,0X5F,0XD6,0X5F,0XD6,0X5F,
 576          0XD6,0X5F,0XD6,0X5F,0X9C,0X7B,0XB5,0X5D,0XD6,0X5F,0XD6,0X5F,0XD6,0X7F,0XD6,0X5F,
 577          0XD6,0X7F,0XD6,0X5F,0XD6,0X5F,0XD6,0X5F,0XD6,0X5F,0XD6,0X7F,0XD6,0X7F,0XD6,0X7F,
 578          0XD6,0X7F,0XD6,0X5F,0XD6,0X5F,0XD6,0X5F,0XD6,0X5F,0XD6,0X5F,0XD6,0X5F,0XD6,0X5F,
 579          0XD6,0X5F,0XD6,0X5F,0XD6,0X5F,0XD6,0X5F,0XD6,0X5F,0XD6,0X5F,0XD6,0X5F,0XD6,0X5F,
 580          0XCE,0X5F,0XD6,0X5F,0XD6,0X5F,0XBD,0X9E,0X62,0X56,0X7B,0X7C,0X8B,0XBD,0X8B,0XDE,
 581          0X93,0XDE,0X93,0XBF,0X83,0XBE,0X83,0XBD,0X7A,0XF5,0XEF,0X3F,0XE7,0X9F,0XE6,0X7D,
 582          0X93,0X53,0XCC,0XF9,0XDD,0XBC,0X9B,0XD4,0XC5,0X79,0XEF,0X7F,0XEF,0X9F,0XEF,0X9F,
 583          0XEF,0X9F,0XEF,0X9F,0XEF,0X9F,0XEF,0X9F,0XEF,0XBF,0XEF,0X9F,0XB5,0X18,0XBC,0X98,
 584          0XDD,0X9B,0XCC,0XF9,0XC4,0XD9,0XB4,0X57,0XBD,0X19,0XEF,0X5F,0XE7,0X1F,0X6A,0XF9,
 585          0X8B,0XDD,0X8B,0XDE,0XA4,0X5F,0X9C,0X5F,0X9C,0X7F,0XA4,0X7F,0XA4,0X7F,0X9C,0X7F,
 586          0XA4,0X7F,0X9C,0X5F,0X9C,0X3F,0X9C,0X3E,0X7B,0X3A,0X9C,0X9B,0XD6,0X7F,0XD6,0XBF,
 587          0XD6,0X5F,0XD6,0X7F,0XD6,0X7F,0XD6,0X5F,0XD6,0X5F,0XD6,0X5F,0XD6,0X5F,0XD6,0X5F,
 588          0XD6,0X5F,0XD6,0X5F,0XD6,0X5F,0XD6,0X5F,0XD6,0X7F,0XC5,0XBE,0X94,0X3A,0XCE,0X5F,
 589          0XD6,0X7F,0XD6,0X7F,0XD6,0X5F,0XD6,0X7F,0XD6,0X7F,0XD6,0X5F,0XD6,0X5F,0XD6,0X5F,
 590          0XD6,0X7F,0XD6,0X5F,0XCE,0X3F,0XCE,0X3F,0XCE,0X5F,0XD6,0X5F,0XD6,0X5F,0XD6,0X5F,
 591          0XD6,0X5F,0XD6,0X5F,0XD6,0X5F,0XD6,0X5F,0XD6,0X5F,0XD6,0X5F,0XD6,0X5F,0XD6,0X5F,
 592          0XD6,0X5F,0XD6,0X5F,0XD6,0X5F,0XD6,0X5F,0XD6,0X5F,0XD6,0X5F,0XD6,0X5F,0XCE,0X3F,
 593          0XBD,0X5E,0X62,0X76,0X7B,0X5B,0X8B,0XBE,0X8B,0XBE,0X8B,0XDE,0X73,0X5D,0X73,0X7D,
 594          0X7B,0X56,0XB4,0XF8,0XE7,0X7F,0XF7,0X7F,0XCD,0X9B,0XAC,0X16,0XCC,0XF9,0XDD,0X9B,
 595          0XA3,0XF5,0XC5,0X99,0XEF,0X7F,0XEF,0X9F,0XEF,0X9F,0XEF,0X9F,0XEF,0X9F,0XEF,0X9F,
 596          0XEF,0X7F,0XBD,0X38,0XC4,0XB8,0XE5,0X9C,0XDD,0X7B,0XC4,0XB9,0XC4,0XD9,0XA4,0X36,
 597          0XEF,0X5F,0XE7,0X7E,0XBD,0X9D,0X72,0XDA,0X8B,0XBE,0X8B,0XDE,0X9C,0X3F,0X9C,0X7F,
 598          0X9C,0X5F,0XA4,0X7F,0X9C,0X7F,0X9C,0X5F,0X9C,0X5F,0X9C,0X5E,0X93,0XFE,0X7B,0X3A,
 599          0XC5,0XBF,0XCE,0X5F,0XD6,0X9F,0XD6,0X7E,0XD6,0X7F,0XD6,0X5F,0XCE,0X5F,0XD6,0X7F,
 600          0XD6,0X7F,0XD6,0X5F,0XD6,0X5F,0XD6,0X5F,0XD6,0X7F,0XD6,0X5F,0XD6,0X5F,0XCE,0X5F,
 601          0XCE,0X3F,0X8B,0XD9,0XC5,0XDF,0XD6,0X7F,0XD6,0X5F,0XD6,0X5F,0XD6,0X5F,0XCE,0X5F,
 602          0XD6,0X5F,0XD6,0X5F,0XD6,0X5F,0XD6,0X5F,0XD6,0X7F,0XD6,0X7E,0XC5,0X7E,0XD6,0X3F,
 603          0XD6,0X5F,0XD6,0X5F,0XD6,0X7F,0XD6,0X5F,0XD6,0X5F,0XD6,0X5F,0XD6,0X5F,0XD6,0X5F,
 604          0XD6,0X5F,0XD6,0X5F,0XCE,0X5F,0XD6,0X5F,0XD6,0X5F,0XD6,0X5F,0XD6,0X5F,0XD6,0X5F,
 605          0XD6,0X5F,0XD6,0X5F,0XCE,0X5F,0XCE,0X5F,0XCE,0X3F,0XC5,0XBF,0X5A,0X35,0X8B,0X7D,
 606          0X8B,0XDE,0X83,0XBE,0XB5,0X7F,0XC6,0X3F,0X9C,0XDB,0X9C,0X79,0XE7,0X7F,0XEF,0X9F,
 607          0XF7,0X5F,0XA4,0X36,0XB4,0X77,0XDD,0X7B,0XDD,0X7B,0XA3,0X94,0XCD,0XFA,0XF7,0X9F,
 608          0XEF,0X9F,0XEF,0XBF,0XEF,0X9F,0XEF,0X9F,0XC5,0XBA,0XC4,0XB8,0XE5,0X9B,0XE5,0X9B,
C51 COMPILER V9.60.0.0   LCDDRIVER                                                         05/03/2021 21:31:15 PAGE 11  

 609          0XCD,0X19,0XC4,0X99,0XAC,0X56,0XD6,0X5C,0XEF,0X7F,0XE6,0XFF,0X73,0X17,0X8B,0XBD,
 610          0X8B,0X9D,0X93,0XDE,0X93,0XDF,0X9C,0X5F,0X9C,0X7F,0X9C,0X7F,0XA4,0X7F,0X9C,0X5F,
 611          0X9C,0X7F,0X83,0X7C,0X7B,0X59,0XC5,0XFF,0XCE,0X5F,0XCE,0X5F,0XCE,0X7F,0XCE,0X5F,
 612          0XD6,0X5F,0XD6,0X5F,0XCE,0X5F,0XD6,0X5F,0XD6,0X7F,0XCE,0X5F,0XCE,0X3F,0XCE,0X5F,
 613          0XD6,0X5F,0XD6,0X5F,0XD6,0X5F,0XD6,0X5F,0XC5,0XFF,0X7B,0X57,0XD6,0X5F,0XD6,0X7F,
 614          0XD6,0X5F,0XD6,0X5F,0XD6,0X5F,0XD6,0X5F,0XD6,0X5F,0XD6,0X5F,0XD6,0X5F,0XD6,0X5F,
 615          0XD6,0X5F,0XD6,0X5F,0XAC,0XDC,0XCE,0X1F,0XD6,0X5F,0XD6,0X5F,0XD6,0X7F,0XD6,0X5F,
 616          0XD6,0X5F,0XD6,0X5F,0XD6,0X5F,0XD6,0X5F,0XD6,0X5F,0XD6,0X5F,0XD6,0X5F,0XD6,0X5F,
 617          0XD6,0X5F,0XD6,0X5F,0XCE,0X5F,0XD6,0X5F,0XD6,0X5F,0XD6,0X5F,0XD6,0X5F,0XCE,0X5F,
 618          0XCE,0X5F,0XCE,0X5F,0XAD,0X1D,0X51,0XD5,0X8B,0XFE,0X73,0XBD,0XBD,0XDF,0XD6,0X7F,
 619          0XD6,0X9F,0XA5,0X5D,0XA5,0X5D,0XEF,0X7F,0XEF,0X9F,0XE7,0X3F,0X9B,0XB4,0XCD,0X3A,
 620          0XE5,0X9B,0XDD,0X7B,0X93,0X73,0XE6,0X7C,0XEF,0X9F,0XEF,0X9F,0XEF,0X9F,0XEF,0X9F,
 621          0XAC,0X56,0XDD,0X5B,0XE5,0XBB,0XDD,0X7B,0XC4,0XB9,0XC4,0XB8,0XC5,0X79,0XEF,0X7F,
 622          0XEF,0X9F,0XB5,0X5C,0X83,0X7B,0X93,0XDD,0X72,0XDB,0X93,0XDE,0X93,0XDE,0X93,0XFE,
 623          0X9C,0X5F,0X9C,0X5F,0X9C,0X5F,0X9C,0X5E,0X7B,0X1B,0XA4,0X9D,0XCE,0X3F,0XCE,0X5E,
 624          0XCE,0X3F,0XCE,0X5F,0XCE,0X5F,0XCE,0X5F,0XCE,0X5F,0XCE,0X5F,0XCE,0X5F,0XD6,0X3F,
 625          0XD6,0X5F,0XBD,0X9E,0XC5,0XFE,0XCE,0X5F,0XCE,0X5F,0XCE,0X5F,0XCE,0X5F,0XCD,0XFF,
 626          0X8B,0XF9,0XAC,0XDC,0XCE,0X3F,0XD6,0X5F,0XD6,0X5F,0XCE,0X5F,0XD6,0X5F,0XCE,0X5F,
 627          0XCE,0X5F,0XCE,0X5F,0XCE,0X5F,0XCE,0X5F,0XCE,0X5F,0XCE,0X5F,0X8B,0XB8,0XCE,0X3F,
 628          0XCE,0X5F,0XD6,0X7F,0XCE,0X7F,0XCE,0X7F,0XCE,0X7F,0XCE,0X7F,0XD6,0X5F,0XD6,0X5F,
 629          0XCE,0X5F,0XD6,0X5F,0XCE,0X3F,0XCE,0X1F,0XCE,0X5F,0XCE,0X5F,0XCE,0X5F,0XCE,0X5F,
 630          0XCE,0X5F,0XCE,0X5F,0XCE,0X5F,0XCE,0X5F,0XCE,0X5F,0XCE,0X5F,0XCE,0X5F,0X93,0XFA,
 631          0X62,0XB9,0XA5,0X3F,0XB5,0X7F,0XA5,0X1E,0XCE,0X7F,0XD6,0XBF,0XA5,0X5D,0XAD,0X5D,
 632          0XEF,0X7F,0XEF,0X7F,0XE6,0XDE,0XB4,0X77,0XDD,0X9B,0XE5,0X9B,0XDD,0X7A,0X93,0X72,
 633          0XE6,0XFE,0XEF,0XBF,0XEF,0XBF,0XEF,0XBF,0XE5,0X9C,0XE5,0XBC,0XE5,0XBC,0XD5,0X5A,
 634          0XC4,0XB8,0XC5,0X19,0XFF,0X9F,0XEF,0X7F,0XEF,0X7F,0X83,0X97,0X8B,0XBD,0X93,0XDE,
 635          0X72,0X9A,0X8B,0XBD,0X93,0XDE,0X8B,0XDE,0X94,0X1E,0XA4,0X5F,0XA4,0X5F,0X83,0X7B,
 636          0XA4,0X7D,0XCE,0X5F,0XCE,0X3F,0XCE,0X5F,0XC5,0XDE,0XCE,0X5F,0XCE,0X5F,0XCE,0X5F,
 637          0XCE,0X5F,0XCE,0X5F,0XCE,0X5F,0XCE,0X5F,0XBD,0X9E,0XBD,0X9E,0XCE,0X5F,0XCE,0X5F,
 638          0XCE,0X5F,0XCE,0X7F,0XCE,0X3F,0XB5,0X3F,0X7B,0X38,0XC5,0XBF,0XCE,0X5F,0XCE,0X5F,
 639          0XD6,0X5F,0XD6,0X5F,0XCE,0X5F,0XD6,0X5F,0XD6,0X5F,0XD6,0X5F,0XCE,0X5F,0XD6,0X5F,
 640          0XCE,0X5F,0XCE,0X3F,0X83,0X97,0XCE,0X3F,0XD6,0X5F,0XD6,0X5F,0XD6,0X5F,0XD6,0X5F,
 641          0XD6,0X5F,0XD6,0X5F,0XD6,0X5F,0XD6,0X5F,0XD6,0X5F,0XCE,0X5F,0XC5,0XFF,0XBD,0X9E,
 642          0XCE,0X5F,0XCE,0X3F,0XCE,0X5F,0XCE,0X5F,0XCE,0X5F,0XCE,0X5F,0XCE,0X5F,0XCE,0X5F,
 643          0XCE,0X5F,0XD6,0X5F,0XD6,0X5F,0XD6,0X5F,0X62,0X97,0XA4,0XBD,0XC6,0X1F,0XBD,0XDF,
 644          0XA5,0X1E,0XCE,0X9F,0XCE,0X7F,0X94,0XDC,0XCE,0X9F,0XE7,0X9F,0XEF,0X9E,0XD5,0XBB,
 645          0XBC,0X56,0XDD,0XBB,0XE5,0XBB,0XC4,0XD8,0XA4,0X14,0XEF,0X7F,0XEF,0X9F,0XEF,0X9F,
 646          0XDD,0X9B,0XE5,0XBC,0XE5,0XBB,0XCD,0X3A,0XAC,0X77,0XE6,0XDE,0XEF,0X7F,0XEF,0X7F,
 647          0XEF,0X7F,0X83,0X97,0X8B,0XDD,0X93,0XDE,0X72,0XFB,0X73,0X3B,0X8B,0XDE,0X8B,0XDE,
 648          0X8B,0XDE,0X94,0X1E,0X8B,0XFE,0X7B,0X59,0XCE,0X3F,0XD6,0X5F,0XCE,0X5F,0XC5,0XFE,
 649          0XAD,0X3D,0XCE,0X5F,0XCE,0X5F,0XCE,0X5F,0XCE,0X5F,0XCE,0X5F,0XCE,0X5F,0XCE,0X3F,
 650          0XA4,0XDC,0XCE,0X5F,0XCE,0X5F,0XCE,0X5F,0XCE,0X5F,0XCE,0X7F,0XBD,0X9F,0XB5,0X5F,
 651          0X62,0XB6,0XCE,0X1F,0XCE,0X5F,0XD6,0X7F,0XD6,0X5F,0XD6,0X5F,0XD6,0X5F,0XD6,0X5F,
 652          0XD6,0X5F,0XD6,0X5F,0XD6,0X5F,0XD6,0X5F,0XCE,0X5F,0XCE,0X1F,0X9C,0X5C,0XCE,0X3F,
 653          0XD6,0X5F,0XD6,0X5F,0XD6,0X5F,0XD6,0X5F,0XD6,0X5F,0XD6,0X5F,0XD6,0X5F,0XD6,0X5F,
 654          0XD6,0X5F,0XCE,0X3F,0XBD,0X7F,0XB5,0X5F,0XCE,0X3F,0XCE,0X5F,0XCE,0X5F,0XCE,0X5F,
 655          0XCE,0X5F,0XCE,0X5F,0XC5,0XDE,0XBD,0X9E,0XCE,0X1F,0XAD,0X1C,0XB5,0X5D,0XCE,0X5F,
 656          0XBD,0X7E,0X6A,0XB7,0XBD,0X7E,0XCE,0X9E,0XA5,0X3E,0XB5,0XBF,0XDE,0XDF,0XCE,0X7F,
 657          0X84,0X7B,0XDF,0X3F,0XEF,0X9F,0XF7,0X7F,0X9B,0XD3,0XCC,0XF8,0XDD,0XBB,0XBC,0X77,
 658          0XAB,0XF4,0XCD,0XFA,0XF7,0X9F,0XEF,0X9F,0XE5,0X9B,0XE5,0X9B,0XDD,0X9B,0XC4,0XD8,
 659          0XBD,0X59,0XEF,0X5F,0XEF,0X7F,0XEF,0X7F,0XEF,0X5F,0X7B,0X35,0X94,0X1E,0X8B,0XDE,
 660          0X8B,0XDE,0X5A,0X59,0X8B,0XDE,0X93,0XDE,0X8B,0XBE,0X8B,0XBD,0X6A,0XB8,0XC6,0X1F,
 661          0XCE,0X7F,0XCE,0X5F,0XCE,0X3F,0XA4,0XDB,0XCE,0X1F,0XD6,0X7F,0XCE,0X5F,0XCE,0X5F,
 662          0XCE,0X5F,0XCE,0X5F,0XCE,0X5F,0XAD,0X3D,0XC5,0XFF,0XCE,0X5F,0XCE,0X5F,0XCE,0X5F,
 663          0XD6,0X5F,0XCE,0X3F,0XB5,0X5E,0XB5,0X1E,0X73,0X17,0XD6,0X5F,0XCE,0X5F,0XD6,0X7F,
 664          0XD6,0X5F,0XD6,0X5F,0XD6,0X5F,0XD6,0X5F,0XD6,0X5F,0XD6,0X5F,0XD6,0X7F,0XD6,0X7F,
 665          0XCE,0X3F,0XC5,0X9F,0X73,0X17,0XCE,0X3F,0XCE,0X3F,0XCD,0XFF,0XC6,0X1F,0XCE,0X5F,
 666          0XD6,0X5F,0XD6,0X5F,0XD6,0X5F,0XD6,0X5F,0XCE,0X3F,0XBD,0XDE,0XBD,0X7F,0XB5,0X5F,
 667          0XCD,0XFF,0XCE,0X3F,0XCE,0X3F,0XCE,0X5F,0XC5,0XFF,0XCE,0X5F,0XCE,0X3F,0X94,0X59,
 668          0XCE,0X1F,0X94,0X7A,0XC5,0XDF,0XC6,0X1F,0XCE,0X5F,0X62,0X95,0XA4,0XBD,0XC5,0XDE,
 669          0XC6,0X5F,0X94,0XDE,0XCE,0X9F,0XD7,0X1E,0XB5,0XFF,0X84,0XBB,0XE7,0X7F,0XEF,0X9F,
 670          0XE6,0XDE,0XAC,0X36,0XE5,0X9C,0XD4,0XF9,0XCC,0XD8,0X9B,0XB3,0XF7,0X7F,0XEF,0X9F,
C51 COMPILER V9.60.0.0   LCDDRIVER                                                         05/03/2021 21:31:15 PAGE 12  

 671          0XE5,0X9C,0XE5,0X9B,0XDD,0X7B,0XAC,0X76,0XE7,0X3F,0XEF,0X9F,0XEF,0X9F,0XEF,0X9F,
 672          0XEF,0X7F,0X7B,0X35,0X8B,0XDD,0X8B,0XDE,0X8B,0XDE,0X83,0XBE,0X52,0X38,0X72,0XFB,
 673          0X83,0X7D,0X5A,0X78,0XBD,0XBF,0XCE,0X5F,0XCE,0X5F,0XCE,0X5F,0XBD,0XBE,0XC5,0XDF,
 674          0XCE,0X3F,0XAD,0X5D,0XCE,0X5F,0XCE,0X5F,0XCE,0X7F,0XCE,0X3F,0XC5,0X9F,0XB5,0X5E,
 675          0XCE,0X5F,0XCE,0X5F,0XCE,0X5F,0XCE,0X5F,0XCE,0X3F,0XBD,0XBF,0XBD,0X7F,0X9C,0X7C,
 676          0X8B,0XBA,0XD6,0X5F,0XCE,0X5F,0XD6,0X7F,0XCE,0X5F,0XCE,0X5F,0XCE,0X5F,0XCE,0X5F,
 677          0XCE,0X5F,0XD6,0X7F,0XD6,0X7F,0XD6,0X7F,0XD6,0X5F,0XBD,0X5E,0X93,0XFA,0XCE,0X3F,
 678          0XCE,0X3F,0XCD,0XFF,0XBD,0X9F,0XCE,0X5F,0XCE,0X5F,0XCE,0X5F,0XCE,0X5F,0XCE,0X5F,
 679          0XCE,0X3F,0XBD,0X9F,0XBD,0X7F,0XAD,0X3E,0XBD,0X9E,0XCE,0X3F,0XB5,0X7D,0XCD,0XFF,
 680          0X94,0X1A,0XCE,0X3F,0XD6,0X5F,0XC5,0XDE,0XAC,0XFD,0XCE,0X1F,0XCE,0X5F,0XD6,0X7F,
 681          0XCE,0X7E,0XB5,0X5D,0X49,0XF2,0XBD,0X9F,0XCE,0X3F,0XB5,0XDF,0XAD,0X5D,0XD6,0XFF,
 682          0XD7,0X1F,0X8C,0XDC,0XD6,0XBF,0XE7,0X9F,0XEF,0X7F,0XB5,0X38,0XC4,0X97,0XDD,0X7B,
 683          0XC4,0X97,0XBC,0X56,0XC5,0X79,0XEF,0X9F,0XE5,0X9C,0XE5,0XBB,0XBC,0X77,0XC5,0XDA,
 684          0XEF,0X7F,0XEF,0X9F,0XEF,0X9F,0XEF,0X7F,0XEF,0X9F,0XAC,0XFB,0X7B,0X1A,0X8B,0XBE,
 685          0X8B,0XDE,0X93,0XDE,0X8B,0X9E,0X8B,0X9D,0X73,0X1B,0X83,0XB9,0XC6,0X3E,0XCE,0X5F,
 686          0XCE,0X3F,0XCE,0X3F,0XCE,0X5F,0XCE,0X3F,0XAD,0X1C,0XBD,0X7E,0XC6,0X1F,0XB5,0X7E,
 687          0XC5,0XFF,0XBD,0XBF,0X8B,0XF9,0XCE,0X3F,0XCE,0X5F,0XCE,0X5F,0XCE,0X5F,0XCE,0X5F,
 688          0XCE,0X3F,0XBD,0X7F,0XB5,0X3E,0X83,0X79,0XA4,0X5B,0XD6,0X5F,0XBD,0X9D,0XCE,0X3F,
 689          0XCE,0X5F,0XCE,0X5F,0XCE,0X5F,0XCE,0X5F,0XCE,0X5F,0XD6,0X5F,0XD6,0X7F,0XD6,0X7F,
 690          0XCE,0X5F,0XB5,0X1D,0X94,0X1B,0XCE,0X3F,0XD6,0X5F,0XCE,0X1F,0XB5,0X5F,0XCE,0X5F,
 691          0XCE,0X5F,0XCE,0X5F,0XCE,0X5F,0XCE,0X5F,0XD6,0X5F,0XBD,0X9E,0XB5,0X5F,0XAD,0X1E,
 692          0XA4,0XDD,0XCE,0X3F,0XC5,0XDE,0XB5,0X5D,0XB5,0X1D,0XC5,0XDF,0XD6,0X5F,0XD6,0X5F,
 693          0X94,0X1A,0XCE,0X1F,0XD6,0X5F,0XD6,0X7F,0XD6,0X7F,0XCE,0X5F,0X39,0X70,0XB5,0X3F,
 694          0XC5,0XBF,0XD6,0X9F,0X94,0X7C,0XD6,0XDF,0XDF,0X3F,0XCE,0X7E,0X94,0X7C,0XEF,0X7F,
 695          0XEF,0X7F,0XF7,0X3F,0XB4,0X55,0XE5,0X9B,0XB4,0X15,0XDD,0X7B,0X8B,0X31,0XEF,0X7E,
 696          0XE5,0X9C,0XDD,0X5A,0XAC,0X76,0XF7,0X7F,0XEF,0X9F,0XEF,0X7F,0XEF,0X9F,0XEF,0X7F,
 697          0XEF,0X9F,0XE6,0XFF,0X52,0X14,0X8B,0XBD,0X93,0XDE,0X8B,0XDE,0X93,0XDE,0X8B,0XBD,
 698          0X49,0XF5,0XC5,0XFF,0XCE,0X5F,0XCE,0X3F,0XC5,0XDF,0XC5,0XFF,0XCE,0X5F,0XCE,0X5F,
 699          0XB5,0X7E,0XCE,0X3F,0X94,0X39,0XCE,0X1F,0X9C,0X7A,0XAC,0XFD,0XB5,0X5D,0XD6,0X5F,
 700          0XCE,0X5F,0XCE,0X5F,0XCE,0X5F,0XCE,0X5F,0XC6,0X1F,0XB5,0X5F,0XA4,0XBD,0X8B,0XBA,
 701          0XA4,0XBC,0XD6,0X5F,0X9C,0X7A,0XC5,0XDF,0XB5,0X3C,0XCE,0X5F,0XCE,0X5F,0XD6,0X5F,
 702          0XD6,0X5F,0XD6,0X5F,0XD6,0X5F,0XD6,0X7F,0XCE,0X3F,0XA4,0XDC,0X83,0XB9,0XCE,0X3F,
 703          0XCE,0X5F,0XCE,0X3F,0XB5,0X3E,0XC6,0X1F,0XCE,0X5F,0XCE,0X5F,0XCE,0X5F,0XCE,0X5F,
 704          0XCE,0X3F,0XBD,0X7E,0XB5,0X3F,0XB5,0X1F,0X93,0XFA,0XC5,0XBE,0XCE,0X3F,0XCE,0X3F,
 705          0XCE,0X3F,0XBD,0X7E,0XCE,0X3F,0XCE,0X5E,0XCD,0XFF,0X94,0X39,0XCE,0X5F,0XD6,0X5F,
 706          0XD6,0X7F,0XD6,0X7F,0X94,0X1A,0X94,0X3A,0XBD,0XBF,0XD6,0X9F,0XB5,0XBE,0XB5,0XFE,
 707          0XDF,0X1E,0XDF,0X1F,0X84,0X3B,0XCE,0X9F,0XEF,0X9F,0XEF,0X9E,0XDD,0XFB,0XAC,0X15,
 708          0XAB,0XD5,0XE5,0X9B,0X9B,0X72,0XDE,0X5C,0XE5,0X9C,0XB4,0X56,0XDE,0X5C,0XEF,0X9F,
 709          0XEF,0X9F,0XEF,0X9F,0XEF,0X9F,0XEF,0X9F,0XEF,0X7F,0XE7,0X5F,0XB5,0X3C,0X5A,0X37,
 710          0X93,0XDE,0X8B,0XDE,0X8B,0XDE,0X72,0XDA,0X94,0X5B,0XD6,0X3F,0XD6,0X5F,0XC6,0X1F,
 711          0XA4,0XBB,0XCE,0X3F,0XCE,0X5F,0XCE,0X5F,0XCE,0X5F,0XCE,0X3F,0XAD,0X1D,0XCE,0X3F,
 712          0XB5,0X1E,0X83,0X98,0XC5,0XFE,0XCE,0X3F,0XCE,0X3F,0XCE,0X5F,0XCE,0X5F,0XCE,0X5F,
 713          0XC5,0XDF,0XB5,0X5F,0X8B,0XFA,0X9C,0X3B,0X9C,0X7C,0XCE,0X3F,0XA4,0XFB,0XCE,0X1F,
 714          0XC5,0XDE,0XD6,0X5F,0XD6,0X5F,0XD6,0X5F,0XD6,0X5F,0XCE,0X5F,0XCE,0X5F,0XCE,0X3F,
 715          0XCE,0X5F,0X9C,0X5B,0X7B,0X78,0XCE,0X3F,0XCE,0X5F,0XCE,0X3F,0X94,0X3B,0XBD,0X9E,
 716          0XCE,0X5F,0XCE,0X5F,0XCE,0X5F,0XCE,0X5F,0XCE,0X3F,0XBD,0X9E,0XB5,0X3F,0XB5,0X3F,
 717          0X9C,0X7C,0XBD,0X7E,0XCE,0X1F,0XCE,0X5F,0XCE,0X5F,0XBD,0X9F,0XC5,0XBF,0XCE,0X5E,
 718          0XCE,0X3F,0X94,0X19,0XCE,0X1F,0XD6,0X5F,0XD6,0X5F,0XD6,0X3F,0XBD,0X7E,0X62,0X95,
 719          0XC5,0XBF,0XCE,0X1E,0XD6,0XBF,0X8C,0X7C,0XDF,0X1F,0XE7,0X5F,0XC6,0X5F,0X94,0XDB,
 720          0XE7,0X5F,0XE7,0X9E,0XFF,0X5F,0XA4,0X15,0XB4,0X36,0XD5,0X5B,0XD5,0X3A,0XAC,0X55,
 721          0XDD,0X7B,0XA3,0XD4,0XEF,0X9F,0XE7,0X9F,0XEF,0X9F,0XEF,0X7F,0XEF,0X9F,0XEF,0X9F,
 722          0XEF,0X7F,0XEF,0X7F,0XE7,0X5F,0X83,0XB8,0X62,0X77,0X93,0XDE,0X93,0XDD,0X62,0X56,
 723          0XCD,0XFF,0XCE,0X3F,0XC5,0XDF,0X83,0XB8,0XCE,0X1F,0XCE,0X5F,0XCE,0X5F,0XCE,0X5F,
 724          0XCE,0X3F,0XC6,0X3F,0XBD,0X9F,0XB5,0X3E,0XAC,0XBD,0X93,0XDA,0XCE,0X5F,0XCE,0X5F,
 725          0XCE,0X5F,0XCE,0X5F,0XCE,0X5F,0XCE,0X5F,0XBD,0XBF,0XB5,0X7F,0X8B,0XDA,0X9C,0X3B,
 726          0X8C,0X1A,0XCE,0X7E,0XCE,0X5F,0XCE,0X7F,0XCE,0X3F,0XD6,0X5F,0XCE,0X3F,0XCE,0X3F,
 727          0XCE,0X3F,0XCE,0X3F,0XCE,0X1F,0XCE,0X1F,0XCE,0X1F,0XA4,0X7B,0X73,0X16,0XCE,0X1F,
 728          0XCE,0X3F,0XCE,0X3F,0X9C,0X5C,0XAC,0XFD,0XCE,0X3F,0XD6,0X5F,0XCE,0X5F,0XCE,0X5F,
 729          0XCE,0X3F,0XBD,0X9F,0XB5,0X3F,0XB5,0X5F,0XAD,0X1E,0X94,0X3B,0XC5,0XDF,0XD6,0X5F,
 730          0XCE,0X5F,0XC5,0XDE,0XB5,0X5E,0XCE,0X1F,0XCE,0X3F,0XC5,0XBF,0X9C,0X5A,0XD6,0X5F,
 731          0XD6,0X3F,0XD6,0X3F,0XCE,0X1F,0X62,0X54,0XC5,0XDF,0XC5,0XDE,0XE7,0X1F,0X94,0XFC,
 732          0XD6,0X7F,0XE7,0X3F,0XE7,0X1F,0X8C,0X7B,0XD6,0XDF,0XEF,0X5F,0XEF,0X9E,0XB4,0XF8,
C51 COMPILER V9.60.0.0   LCDDRIVER                                                         05/03/2021 21:31:15 PAGE 13  

 733          0X9B,0X73,0XD5,0X5B,0XDD,0X7B,0X82,0XF0,0XA3,0XF4,0XCE,0X1B,0XEF,0X9F,0XEF,0X9F,
 734          0XEF,0X9F,0XEF,0X9F,0XEF,0X9F,0XEF,0X9F,0XEF,0X9F,0XEF,0X9F,0XEF,0X9E,0XE7,0X5F,
 735          0X9C,0XDA,0X5A,0X15,0X6A,0XB8,0X94,0X1A,0XCE,0X3F,0XCE,0X3F,0X9C,0X5B,0X9C,0X9B,
 736          0XCE,0X5F,0XCE,0X5F,0XCE,0X5F,0XCE,0X5F,0XCE,0X3F,0XC6,0X1F,0XB5,0X3F,0XA4,0XBC,
 737          0X9C,0X5C,0XAC,0XDE,0XCE,0X3F,0XCE,0X5F,0XCE,0X5F,0XD6,0X5F,0XCE,0X5F,0XCE,0X5F,
 738          0XC5,0XDF,0XB5,0X5F,0X83,0X78,0XAC,0XFD,0X83,0XB8,0XCE,0X3F,0XC5,0XFF,0XBD,0XBF,
 739          0XBD,0X7F,0XBD,0X5F,0XB5,0X5F,0XB5,0X5F,0XB5,0X5F,0XB5,0X5F,0XB5,0X5F,0XB5,0X5F,
 740          0XB5,0X3F,0X94,0X1B,0X7B,0X59,0XB4,0XFE,0XBD,0X7F,0XBD,0X7F,0X9C,0X3C,0X83,0X7A,
 741          0XBD,0X9F,0XCD,0XDF,0XC6,0X1F,0XCE,0X3F,0XCE,0X3F,0XC5,0XFF,0XB5,0X3F,0XB5,0X5F,
 742          0XB5,0X5F,0X94,0X1A,0XBD,0X5F,0XCE,0X5F,0XCE,0X3F,0XCE,0X1F,0XB5,0X3E,0XBD,0X9F,
 743          0XCE,0X3F,0XCE,0X3F,0X83,0XB7,0XC5,0XDE,0XD6,0X5F,0XD6,0X5F,0XD6,0X3F,0X72,0XF6,
 744          0XAC,0XFC,0XCE,0X1F,0XD6,0XBF,0XBE,0X1E,0XAD,0X7D,0XE7,0X3F,0XDF,0X3F,0XBD,0XFE,
 745          0XA5,0X7C,0XE7,0X7F,0XEF,0X9F,0XE6,0XDE,0X8B,0X51,0XD5,0X1A,0XDD,0X9B,0XA3,0X94,
 746          0X93,0X93,0XEF,0X7F,0XEF,0X9F,0XEF,0X9F,0XEF,0X7F,0XEF,0X9F,0XF7,0X9F,0XF7,0X9F,
 747          0XEF,0X9F,0XEF,0X9F,0XEF,0X9F,0XEF,0XBF,0XE7,0X9F,0XCE,0X7E,0X7B,0X16,0XCD,0XDF,
 748          0XCE,0X5E,0XC5,0XDF,0X93,0XFB,0XB5,0X5D,0XCE,0X5F,0XCE,0X5F,0XCE,0X5F,0XCE,0X5F,
 749          0XCE,0X3F,0XBD,0XBE,0XA4,0XDC,0XBD,0X5E,0X93,0XFA,0XBD,0X3F,0XCE,0X3F,0XCE,0X5F,
 750          0XCE,0X5F,0XD6,0X5F,0XCE,0X5F,0XCE,0X5F,0XC5,0XDF,0XB5,0X5F,0X7B,0X17,0XBD,0X7F,
 751          0X5A,0X55,0XA4,0XBD,0XBD,0X5F,0XB5,0X5F,0XB5,0X5F,0XB5,0X5F,0XB5,0X3F,0XB5,0X5F,
 752          0XB5,0X5F,0XB5,0X7F,0XB5,0X5F,0XB5,0X5F,0XB5,0X3F,0X94,0X1A,0X9C,0X3C,0X83,0X59,
 753          0X9C,0X7C,0X83,0X78,0X9C,0X5C,0X6A,0XB7,0XBD,0X5F,0XB5,0X5F,0XB5,0X7F,0XB5,0X7F,
 754          0XB5,0X5E,0XB5,0X7E,0XB5,0X3F,0XB5,0X5F,0XB5,0X5F,0XA4,0XBC,0XAC,0XDC,0XCD,0XFF,
 755          0XBD,0X9E,0XBD,0X9E,0XBD,0X7F,0XBD,0X7F,0XAC,0XFD,0XCE,0X3F,0XCD,0XFF,0X8B,0XD8,
 756          0XD6,0X1F,0XD6,0X5F,0XD6,0X5F,0X93,0XF9,0X9C,0X5A,0XC6,0X1F,0XCE,0X1E,0XDE,0XDF,
 757          0X9D,0X1E,0XDF,0X1F,0XE7,0X1E,0XCE,0X9F,0X8C,0XBB,0XDF,0X7F,0XEF,0X9F,0XEF,0X3F,
 758          0XAC,0X35,0XCD,0X19,0XE5,0X9B,0XB4,0X56,0XC5,0X79,0XEF,0X9F,0XEF,0X9F,0XF7,0X9F,
 759          0XEF,0X9F,0XEF,0X9F,0XF7,0X9F,0XEF,0X9F,0XF7,0X9F,0XEF,0X9F,0XEF,0X9F,0XEF,0XBF,
 760          0XEF,0X9F,0XE7,0X5F,0X6A,0X94,0XD6,0X3F,0XCE,0X3E,0X8B,0XFA,0X9C,0X1C,0XBD,0XBF,
 761          0XCE,0X5F,0XCE,0X5F,0XCE,0X5F,0XCE,0X5F,0XD6,0X3F,0XBD,0X7E,0X83,0XB9,0XC5,0XBF,
 762          0X83,0X78,0XBD,0X5F,0XCE,0X5F,0XCE,0X5F,0XCE,0X5F,0XCE,0X5F,0XCE,0X5F,0XCE,0X5F,
 763          0XBD,0XBE,0XB5,0X5F,0X8B,0X99,0XC5,0XBE,0X6A,0XF7,0X83,0X9B,0X8B,0XD9,0XAD,0X1E,
 764          0XB5,0X3F,0XB5,0X3F,0XB5,0X5F,0XB5,0X5F,0XB5,0X3F,0XB5,0X5F,0XB5,0X5F,0XB5,0X5F,
 765          0XB5,0X3F,0XAC,0XDE,0X94,0X1B,0X8B,0XBA,0XAC,0XBE,0XBD,0X5F,0XBD,0X3F,0X83,0X99,
 766          0XA4,0X9D,0XAD,0X3F,0XB5,0X5F,0XAD,0X1E,0XAC,0XDD,0X8C,0X1A,0X7B,0X78,0X83,0XB9,
 767          0X9C,0X5B,0XB5,0X3F,0X94,0X3B,0XBD,0X7E,0XCE,0X1F,0X94,0X5A,0XB5,0X3F,0XBD,0X5F,
 768          0XA4,0X7C,0XC5,0XDF,0XCE,0X5E,0XA4,0X9B,0XA4,0XBB,0XD6,0X5F,0XD6,0X3F,0XBD,0X5E,
 769          0X8B,0XB8,0XC5,0XFF,0XCE,0X1F,0XDE,0XDF,0X94,0X9D,0XDE,0XFF,0XDF,0X1F,0XDE,0XFF,
 770          0XAD,0X9E,0XCE,0X9E,0XEF,0X9F,0XEF,0X9F,0XC5,0X9A,0XCC,0XF9,0XE5,0X9C,0XDD,0X5A,
 771          0XEF,0X3F,0XEF,0X9F,0XEF,0X9F,0XEF,0X7F,0XEF,0X9F,0XEF,0X9F,0XF7,0X9F,0XEF,0X9F,
 772          0XEF,0X9F,0XF7,0X9F,0XEF,0X9F,0XF7,0X9F,0XEF,0X9F,0XE6,0XFF,0X72,0XF5,0XD6,0X5F,
 773          0XCD,0XFF,0X94,0X1C,0X83,0X9A,0XC5,0XBF,0XCE,0X5F,0XCE,0X5F,0XCE,0X5F,0XCE,0X5F,
 774          0XCE,0X3F,0XB5,0X7E,0X7B,0X57,0XC5,0XDF,0X72,0XF7,0XBD,0X7F,0XD6,0X5F,0XD6,0X7F,
 775          0XD6,0X7F,0XCE,0X1F,0XBD,0X9F,0XB5,0X5F,0XB5,0X3F,0XBD,0X5F,0X83,0X78,0XBD,0X3D,
 776          0XBD,0X5E,0X7B,0X38,0XBD,0X3F,0XAC,0XDD,0XB5,0X1E,0XB5,0X3F,0XB5,0X5F,0XB5,0X3F,
 777          0XB5,0X3F,0XB5,0X5F,0XB5,0X5F,0XB5,0X5F,0XB5,0X3F,0XB5,0X1E,0X7B,0X38,0XBD,0X7F,
 778          0X6A,0XF6,0XB5,0X1F,0XB5,0X3F,0XB4,0XFE,0X7B,0X37,0X83,0X78,0X6A,0XB5,0X5A,0X54,
 779          0X7B,0X57,0X94,0X1A,0X9C,0X5C,0XA4,0X9D,0X6A,0XD6,0X4A,0X33,0X6A,0XD6,0X83,0X98,
 780          0XC5,0XBF,0X9C,0X3A,0XA4,0X9C,0XBD,0X5F,0XB5,0X1E,0X9C,0X5B,0XCE,0X3F,0XCE,0X1F,
 781          0X83,0X97,0XBD,0X7E,0XCE,0X3F,0XC5,0X9E,0X62,0X74,0XCD,0XFF,0XCD,0XFF,0XCE,0X7F,
 782          0XAD,0X9D,0XDE,0XDF,0XDF,0X1F,0XDE,0XFF,0XC6,0X1F,0XA5,0X3D,0XE7,0X9F,0XEF,0X9F,
 783          0XC5,0XBA,0XCD,0X3A,0XDD,0X9B,0XDD,0X7B,0XF7,0X7F,0XEF,0X9F,0XEF,0X9F,0XF7,0X9F,
 784          0XF7,0X9F,0XF7,0X9F,0XF7,0X9F,0XF7,0X9F,0XEF,0X9F,0XF7,0X9F,0XEF,0X9F,0XF7,0X9F,
 785          0XEF,0X9F,0XDE,0X9E,0X83,0X97,0XD6,0X3F,0XA4,0X7B,0XAC,0XFE,0X6A,0XF6,0XBD,0X7E,
 786          0XCE,0X5F,0XCE,0X5F,0XD6,0X7F,0XD6,0X5F,0XCE,0X3F,0XB5,0X5E,0X8B,0XFA,0XC5,0X9F,
 787          0X73,0X17,0XBD,0X7F,0XCE,0X5F,0XD6,0X5F,0XCD,0XFF,0XBD,0X7E,0XB5,0X5E,0XB5,0X5F,
 788          0X9C,0X5C,0XA4,0X7C,0X6A,0XB6,0X7B,0X17,0X8B,0XB9,0X8B,0X9A,0X93,0XFA,0XBD,0X3F,
 789          0XBD,0X3F,0XBD,0X3F,0XB5,0X1F,0XB5,0X5F,0XB5,0X5F,0XB5,0X5F,0XB5,0X5F,0XB5,0X5F,
 790          0XB5,0X5F,0XBD,0X5F,0X7B,0X38,0XC5,0XBF,0XAC,0XFD,0X72,0XF6,0XAC,0XBE,0X72,0XF6,
 791          0X5A,0X33,0XAC,0X9D,0XA4,0X7B,0X8B,0X98,0X6A,0XB5,0X5A,0X74,0X6A,0XB6,0X51,0XF2,
 792          0X5A,0X54,0X5A,0X54,0X52,0X13,0X39,0X70,0X5A,0X33,0XB4,0XFE,0X7B,0X37,0XB4,0XFE,
 793          0XB5,0X3F,0X8B,0XF9,0XBD,0X9E,0XCD,0XFE,0XCE,0X1F,0X73,0X36,0XBD,0X9E,0XC5,0XBE,
 794          0X73,0X16,0XCD,0XFF,0XC5,0XFF,0XC6,0X1E,0XDF,0X1F,0XDF,0X1F,0XDE,0XFF,0XDE,0XFF,
C51 COMPILER V9.60.0.0   LCDDRIVER                                                         05/03/2021 21:31:15 PAGE 14  

 795          0XC6,0X3F,0X9C,0XFC,0XEF,0X7F,0XEF,0X5F,0XB4,0XF8,0XDD,0X9B,0XE5,0X9B,0XDD,0X7B,
 796          0XF7,0X7F,0XEF,0X9F,0XEF,0X7F,0XF7,0X9F,0XEF,0X9F,0XEF,0X9F,0XF7,0X9F,0XEF,0X9F,
 797          0XEF,0X9F,0XF7,0X9F,0XEF,0X9F,0XEF,0X9F,0XEF,0X9F,0XDE,0X9E,0X8B,0XB8,0XD6,0X3E,
 798          0X83,0X78,0XB4,0XFF,0X83,0XB9,0XB5,0X3F,0XCE,0X3F,0XCE,0X5F,0XCE,0X5F,0XD6,0X5F,
 799          0XCE,0X3F,0XB5,0X5E,0X94,0X1A,0XBD,0X5E,0X8B,0XB9,0XBD,0X5E,0XCE,0X3F,0XC5,0XBE,
 800          0X9C,0X7C,0X73,0X16,0X6A,0XD6,0X5A,0X54,0X5A,0X74,0X5A,0X54,0X6A,0XD5,0X72,0XF6,
 801          0XB4,0XFD,0XA4,0X7C,0X9C,0X3A,0XAC,0XBD,0XB5,0X3F,0XB5,0X3F,0XB5,0X1F,0XB5,0X3F,
 802          0XB5,0X5F,0XB5,0X5F,0XB5,0X5F,0XB5,0X5F,0XB5,0X5F,0XBD,0X3F,0XAC,0XBE,0X94,0X3A,
 803          0XC5,0XDF,0XB5,0X3E,0X73,0X36,0XAC,0XDC,0X8B,0XB8,0X6A,0XB3,0X94,0X18,0XCD,0XDF,
 804          0X83,0X79,0XA4,0X7E,0XA4,0XDE,0X9C,0X3C,0X8B,0X9A,0XA4,0X5E,0X83,0X39,0X83,0X99,
 805          0X62,0X74,0X62,0X54,0X73,0X16,0X72,0XF6,0X94,0X1A,0XB5,0X1E,0X73,0X16,0XC5,0XDF,
 806          0XCE,0X1E,0XC5,0XDF,0X7B,0X57,0XA4,0X9C,0X73,0X16,0XC5,0XBF,0XC5,0XFF,0XC6,0X1E,
 807          0XD6,0XDF,0XDF,0X1F,0XDF,0X1F,0XDE,0XFF,0XD6,0X7F,0X8C,0X1A,0XAC,0XF7,0XB5,0X18,
 808          0X9B,0XF4,0XD5,0X7A,0XDD,0X7B,0XD5,0X7B,0XEF,0X9F,0XEF,0X9F,0XEF,0X9F,0XF7,0X9F,
 809          0XF7,0X9F,0XF7,0X9F,0XEF,0X9F,0XEF,0X9F,0XEF,0X9F,0XF7,0X9F,0XEF,0X9F,0XF7,0X9F,
 810          0XEF,0X9F,0XDE,0XBE,0X93,0XD8,0XD6,0X3F,0X83,0X78,0XAC,0XFE,0X83,0XD9,0XB5,0X5F,
 811          0XC5,0XBF,0XCE,0X3F,0XCE,0X5F,0XD6,0X3F,0XCE,0X5F,0XB5,0X5E,0XAC,0XDD,0X9C,0X5B,
 812          0XAC,0XDD,0XA4,0X7B,0XBD,0X3D,0X8B,0XB9,0X93,0XDA,0XB4,0XDD,0XAC,0XDD,0XA4,0X7D,
 813          0XA4,0X7D,0XA4,0X9D,0XA4,0X7C,0XAC,0X9C,0X83,0X58,0X62,0X74,0X8B,0XB9,0X8B,0X98,
 814          0X83,0X58,0XB4,0XFF,0XB5,0X3F,0XB5,0X3F,0XB5,0X3F,0XB5,0X5F,0XB5,0X5F,0XB5,0X5F,
 815          0XB5,0X5F,0XBD,0X5F,0XBD,0X5E,0XC5,0XBF,0XC5,0X9F,0X94,0X19,0X9C,0X39,0X7B,0X55,
 816          0XCD,0XDE,0XD6,0X7F,0XD6,0X9E,0XCD,0XBF,0X8B,0X7A,0XAC,0XDE,0XAC,0XDF,0XB4,0XFC,
 817          0XDE,0X9F,0X9B,0XFB,0XAC,0X9E,0X8B,0X9A,0XCD,0XDF,0X94,0X3A,0X6A,0XD6,0X8B,0XBA,
 818          0X7B,0X58,0X9C,0X5C,0XA4,0XBD,0X7B,0X78,0XB5,0X3E,0XCE,0X3F,0XCE,0X1F,0XAC,0XDC,
 819          0X41,0XB1,0X9C,0X7B,0XB5,0X5E,0XBD,0X9E,0XC5,0XDF,0XD6,0XDF,0XD6,0XFF,0XD6,0XBF,
 820          0XBD,0X19,0XB4,0XD8,0XE6,0XBC,0XFF,0XDF,0XE6,0XDD,0XBC,0XB7,0XDD,0X9B,0XD5,0X7B,
 821          0XEF,0X7F,0XEF,0X9F,0XEF,0X9F,0XF7,0X9F,0XF7,0X9F,0XF7,0X9F,0XF7,0X9F,0XEF,0X9F,
 822          0XEF,0X9F,0XEF,0X9F,0XEF,0X9F,0XEF,0X9F,0XEF,0X9F,0XE7,0X1F,0X72,0XD4,0XD6,0X3F,
 823          0X7B,0X57,0XAC,0XBD,0X8B,0XD9,0XBD,0X5F,0XBD,0X3F,0XCE,0X1F,0XCE,0X5E,0XCE,0X5F,
 824          0XCE,0X3F,0XAC,0XBD,0XB5,0X1E,0X83,0X78,0XBD,0X1E,0X9C,0X1A,0X72,0XF5,0X6A,0XB4,
 825          0X8B,0XB7,0X7B,0X76,0XA4,0XBB,0X83,0X59,0X7A,0XF8,0X7B,0X58,0X72,0XF6,0X6A,0XB6,
 826          0X6A,0X95,0X93,0XFA,0X7B,0X37,0X7B,0X37,0XB4,0XDD,0X72,0XD5,0XA4,0X7B,0XBD,0X3F,
 827          0XBD,0X3F,0XB5,0X5F,0XBD,0X3F,0XBD,0X3F,0XB5,0X5F,0XBD,0X7F,0XC5,0XDF,0XCE,0X1F,
 828          0XA4,0X9B,0X93,0XF8,0XB5,0X3B,0XD6,0X9F,0XD6,0X9F,0XD6,0X7F,0XD6,0X9F,0X93,0XFA,
 829          0XAC,0XBD,0XCE,0X1F,0XA4,0X9E,0XCD,0XFF,0XEF,0X9E,0X9C,0X3B,0XA4,0X7E,0X83,0X5A,
 830          0XCD,0XDF,0XD6,0X3F,0XA4,0X7B,0XAC,0X9D,0X93,0XFB,0XAD,0X3F,0XB5,0X5F,0XB5,0X1F,
 831          0X5A,0X74,0X73,0X16,0XA4,0XBB,0XCE,0X1F,0XCD,0XFF,0XBD,0X7E,0XA4,0X9B,0XAC,0XDD,
 832          0X8B,0XD9,0XCE,0X3F,0XDE,0XFF,0XB5,0X19,0XBD,0X58,0XFF,0XDF,0XFF,0XFF,0XF7,0XFF,
 833          0XF7,0XDF,0XC5,0X58,0XCD,0X18,0XE5,0X9B,0XEF,0X9F,0XEF,0X9F,0XEF,0X9F,0XF7,0X9F,
 834          0XF7,0X9F,0XEF,0X9F,0XEF,0X9F,0XEF,0X7F,0XEF,0X7F,0XEF,0X7F,0XEF,0X9F,0XEF,0X9F,
 835          0XEF,0X9F,0XEF,0X9F,0X8B,0X97,0XCD,0XFF,0X8B,0XD9,0XA4,0X9C,0X8B,0XB9,0XB5,0X1E,
 836          0XBD,0X5F,0XB5,0X3E,0XC5,0XDE,0XBD,0X9E,0XCE,0X1F,0XB5,0X1D,0X6A,0XB5,0X62,0X95,
 837          0X52,0X12,0X49,0XB1,0X9C,0X39,0XD6,0X1F,0XDE,0X7F,0XDE,0X9F,0XD6,0X7F,0X8B,0XBA,
 838          0XAC,0X9E,0XB4,0XFE,0XA4,0XDD,0XAC,0XFF,0X9C,0X5A,0X8B,0XD8,0X72,0XF6,0X8B,0X98,
 839          0X62,0X93,0XC5,0X7F,0XBD,0X9F,0XBD,0X7F,0XBD,0X5F,0XB5,0X5F,0XBD,0X3F,0XB5,0X1E,
 840          0XB5,0X5E,0XC5,0XDF,0XCE,0X1F,0XCD,0XFF,0X8B,0XB7,0XC5,0XBD,0XD6,0X7F,0XD6,0XDE,
 841          0XD6,0X9F,0XD6,0X9F,0XD6,0X7F,0X7B,0X18,0XB4,0XFE,0XBD,0X9D,0XA4,0X9E,0XB4,0XFC,
 842          0XE7,0X1F,0X8B,0XBA,0XAC,0X9E,0X9C,0X3E,0X94,0X1A,0XD6,0X7F,0XB5,0X1D,0X83,0X79,
 843          0X9C,0X3B,0XB5,0X5F,0XB5,0X5F,0XB5,0X3F,0X8B,0XDA,0XB5,0X3E,0X7B,0X58,0X6A,0XF7,
 844          0X6B,0X18,0X7B,0X37,0X7B,0X57,0X7B,0X37,0XAC,0XFD,0XDE,0X9F,0XBD,0X5A,0XBD,0X58,
 845          0XFF,0XDE,0XF7,0XDE,0XFF,0XFE,0XFF,0XFF,0XFF,0XFF,0XF7,0X5E,0XA3,0XF3,0XAC,0X14,
 846          0XEF,0X9F,0XEF,0X7F,0XEF,0X9F,0XF7,0X9F,0XF7,0X9F,0XEF,0X9F,0XEF,0X9F,0XEF,0X9F,
 847          0XEF,0X9F,0XEF,0X9F,0XEF,0X9F,0XEF,0X9F,0XEF,0X7F,0XEF,0X7F,0XB5,0X5B,0X83,0X98,
 848          0X9C,0X5A,0X9C,0X1A,0X7B,0X58,0XB5,0X3E,0XBD,0X3F,0XB5,0X3F,0XB5,0X3F,0XB5,0X5F,
 849          0XCE,0X1F,0XCE,0X1F,0XB5,0X1E,0XAC,0XDD,0XAC,0XFC,0XCD,0XDF,0XDE,0X7F,0XDE,0X9F,
 850          0XDE,0X9F,0XDE,0X9F,0XD6,0X5F,0X7B,0X37,0XB5,0X1D,0XE6,0XDF,0XAC,0XFE,0XA4,0XBE,
 851          0XCE,0X1D,0XC5,0XBC,0XA4,0X5D,0X72,0XB7,0XB5,0X1D,0X83,0XD7,0XC5,0XBE,0XCE,0X1F,
 852          0XCE,0X1E,0XC5,0XFE,0XCE,0X1E,0XCE,0X1F,0XD6,0X7F,0XD6,0X7F,0XD6,0X7F,0XD6,0X5E,
 853          0XBD,0XBC,0XD6,0X7E,0XDE,0XBE,0XDE,0XDF,0XDE,0XBF,0XD6,0X9E,0XD6,0X5F,0X83,0X19,
 854          0XAC,0XBD,0XAC,0XFD,0XAC,0XDE,0X8B,0XFC,0X83,0X9A,0X9C,0X5D,0XAC,0XDE,0XAC,0XBF,
 855          0X72,0XB8,0XD6,0X7F,0XC5,0XDF,0X7B,0X37,0XAC,0XFD,0XC5,0XFF,0XBD,0XBF,0XBD,0X9F,
 856          0XA4,0XBC,0XA4,0X9D,0XB5,0X5F,0XB5,0X3F,0X7B,0XFC,0XB5,0X9F,0XC5,0XDF,0XC5,0XBF,
C51 COMPILER V9.60.0.0   LCDDRIVER                                                         05/03/2021 21:31:15 PAGE 15  

 857          0XC5,0XDE,0XDE,0X7F,0XAC,0X56,0XFF,0XBF,0XFF,0XFE,0XFF,0XFE,0XFF,0XFF,0XFF,0XFF,
 858          0XFF,0XFF,0XFF,0XDF,0XA4,0X13,0XC5,0X79,0XEF,0X5F,0XEF,0X7F,0XEF,0X9F,0XF7,0X9F,
 859          0XF7,0X9F,0XEF,0X9F,0XEF,0X9F,0XEF,0X9F,0XF7,0X9F,0XEF,0X9F,0XEF,0X9F,0XEF,0X9F,
 860          0XEF,0X9F,0XEF,0X7F,0XE7,0X1F,0X5A,0X72,0XB4,0XFD,0X93,0XF9,0X83,0X78,0XB4,0XFE,
 861          0XB5,0X3F,0XB5,0X5F,0XAD,0X5F,0XB5,0X7E,0XCE,0X3F,0XCE,0X3F,0XB5,0X3E,0XA4,0X9C,
 862          0XCD,0XFF,0XD6,0X5F,0XD6,0X9F,0XDE,0XBF,0XD6,0XBF,0XD6,0XBF,0XD6,0X3F,0X83,0X39,
 863          0XB4,0XDE,0XC5,0XBE,0XB5,0X3E,0XBD,0X1F,0XC5,0XDE,0XE6,0XFF,0XAC,0X7D,0X8B,0X7A,
 864          0XD6,0X1E,0XE6,0XFF,0XDE,0XBF,0XDE,0XFF,0XDE,0XFF,0XE7,0X1F,0XE7,0X1F,0XE7,0X1F,
 865          0XE7,0X1F,0XE7,0X3F,0XE7,0X3F,0XE7,0X1F,0XE7,0X5F,0XEF,0X9F,0XF7,0XDF,0XF7,0XDF,
 866          0XF7,0XDF,0XF7,0XBF,0XE7,0X1F,0X7A,0XF9,0XBD,0X5F,0XB5,0X5E,0XB5,0X1F,0XB5,0X3F,
 867          0XB5,0X3F,0XB5,0X1F,0XB5,0X5F,0XBD,0X5F,0X8B,0X3A,0XEF,0X3F,0XCE,0X3F,0X5A,0X74,
 868          0XC5,0XDF,0XD6,0X5F,0XD6,0X5F,0XCE,0X5F,0XC5,0XBE,0X94,0X1A,0XBD,0X3F,0XB5,0X3F,
 869          0X84,0X3D,0XBD,0XBF,0XC5,0XFF,0XC6,0X1F,0XC5,0XFF,0XBD,0X1A,0XD5,0XFA,0XF7,0XDE,
 870          0XFF,0XDE,0XFF,0XFF,0XFF,0XFF,0XFF,0XFF,0XF7,0XFF,0XFF,0XFF,0XCD,0XDA,0XCE,0X3B,
 871          0XAD,0X18,0XEF,0X9F,0XEF,0X9F,0XF7,0X9F,0XF7,0X9F,0XF7,0X9F,0XEF,0X9F,0XEF,0X9F,
 872          0XEF,0X9F,0XEF,0X9F,0XEF,0X9F,0XEF,0X9F,0XEF,0X9F,0XEF,0X9F,0XF7,0X9F,0XD6,0X7E,
 873          0X5A,0X32,0XB4,0XFD,0XB5,0X1E,0X94,0X1A,0XB5,0X3F,0XB5,0X3F,0XAD,0X3E,0XC5,0XFF,
 874          0XCE,0X3F,0XCE,0X5F,0XBD,0X7F,0X9C,0X5B,0XCD,0XFF,0XD6,0X9F,0XDE,0XBF,0XDE,0XDF,
 875          0XD6,0XBE,0XDE,0XDF,0XCE,0X3E,0X7B,0X38,0XC5,0X9F,0XC5,0XBE,0XC5,0XBF,0XC5,0X9F,
 876          0XA4,0X9B,0XC5,0XDE,0XBD,0X1E,0XB4,0XBE,0XD6,0X1E,0XE7,0X3F,0XE7,0X3F,0XE7,0X3F,
 877          0XE7,0X5F,0XE7,0X3F,0XE7,0X3F,0XE7,0X3F,0XE7,0X5F,0XE7,0X5F,0XE7,0X3F,0XE7,0X5F,
 878          0XE7,0X5F,0XF7,0X9F,0XF7,0XFF,0XFF,0XFF,0XFF,0XFF,0XFF,0XFF,0XEF,0X7F,0X72,0XD7,
 879          0XC5,0XBF,0XC5,0XDF,0XC5,0XBF,0XC5,0XBF,0XC5,0XBE,0XC5,0XBF,0XC5,0XBF,0XBD,0X7F,
 880          0X6A,0X56,0XEF,0X5F,0XCE,0X1F,0X62,0X95,0XCE,0X1F,0XD6,0X7F,0XD6,0X5F,0XD6,0X5F,
 881          0XCE,0X3F,0X73,0X37,0XBD,0X3F,0XBD,0X3F,0X73,0X9B,0XBD,0XBF,0XC6,0X1F,0XBE,0X1F,
 882          0XD6,0X1F,0XAC,0X57,0XFF,0X9F,0XFF,0XDE,0XFF,0XDE,0XFF,0XFE,0XFF,0XFF,0XFF,0XFF,
 883          0XFF,0XFF,0XFF,0XFF,0XF7,0X5E,0XAC,0X96,0XEF,0X5F,0XEF,0X9F,0XEF,0X9F,0XF7,0X9F,
 884          0XF7,0X9F,0XEF,0X9F,0XEF,0X9F,0XEF,0X9F,0XEF,0X9F,0XEF,0X9F,0XEF,0X9F,0XEF,0X9F,
 885          0XEF,0X9F,0XF7,0X9F,0XEF,0X9F,0XEF,0X9F,0XDE,0X9E,0XA4,0X9C,0XB5,0X1E,0XBD,0X3E,
 886          0XB5,0X3F,0XAC,0XDE,0XB5,0X7E,0XCE,0X5F,0XCE,0X5F,0XCE,0X5F,0XC5,0XBE,0X6A,0XB5,
 887          0XCD,0XFF,0XD6,0XBF,0XDE,0XBF,0XDE,0XFE,0XEF,0X5F,0XF7,0XBF,0XEF,0X5F,0X72,0XF7,
 888          0XC5,0X9F,0XC5,0XBF,0XC5,0XBF,0XC5,0XBF,0XB5,0X3E,0XAC,0XDE,0XBD,0X9F,0XAC,0XBD,
 889          0XC5,0X7C,0XE7,0X1F,0XE7,0X3F,0XE7,0X3F,0XE7,0X3F,0XE7,0X3F,0XE7,0X1F,0XE7,0X3F,
 890          0XE7,0X5F,0XE7,0X3F,0XE7,0X3F,0XE7,0X5F,0XE7,0X5F,0XF7,0X9F,0XFF,0XFF,0XFF,0XFF,
 891          0XFF,0XFF,0XF7,0XFF,0XF7,0XDF,0X83,0X77,0XBD,0X1F,0XC5,0XDF,0XCD,0XDF,0XC5,0XDF,
 892          0XC5,0XDF,0XC5,0XBF,0XC5,0XBF,0XB4,0XFE,0X9B,0XD9,0XF7,0X7F,0XC5,0XDE,0X7B,0X37,
 893          0XD6,0X3F,0XD6,0X5F,0XD6,0X5F,0XCE,0X5F,0XCE,0X1F,0X6A,0XB5,0XBD,0X3F,0XAC,0XBE,
 894          0X7B,0XBC,0XB5,0X7F,0XC6,0X1F,0XC6,0X1F,0XC5,0X7C,0XC5,0X19,0XEF,0X3E,0XFF,0XDF,
 895          0XFF,0XFF,0XFF,0XFE,0XFF,0XFF,0XFF,0XFF,0XFF,0XFE,0XFF,0XFE,0XFF,0XDF,0XAC,0X76,
 896          0XEF,0X9F,0XEF,0X9F,0XEF,0X9F,0XF7,0X9F,0XF7,0X9F,0XF7,0X9F,0XEF,0X9F,0XEF,0X9F,
 897          0XEF,0X9F,0XEF,0X9F,0XEF,0X9F,0XEF,0X9F,0XEF,0X9F,0XF7,0X9F,0XF7,0X9F,0XEF,0X9F,
 898          0XEF,0X9F,0X8B,0XD8,0XBD,0X3F,0XB5,0X5F,0XAC,0XFE,0X83,0XB9,0XCE,0X3F,0XD6,0X7F,
 899          0XD6,0X5F,0XCE,0X5F,0XCE,0X3F,0X7B,0X78,0XC5,0XDF,0XD6,0X9F,0XE6,0XFF,0XF7,0XDF,
 900          0XF7,0XDF,0XF7,0XFF,0XF7,0X9F,0X72,0XD5,0XC5,0X7F,0XC5,0XBE,0XC5,0XBF,0XC5,0XBF,
 901          0XC5,0XBF,0XBD,0XBF,0XC5,0XBF,0X9C,0X3B,0XC5,0X9C,0XEF,0X3F,0XE7,0X5F,0XE7,0X3F,
 902          0XE7,0X3F,0XE7,0X3F,0XE7,0X3F,0XE7,0X3F,0XE7,0X3F,0XE7,0X3F,0XE7,0X5F,0XE7,0X5F,
 903          0XE7,0X5F,0XEF,0X5F,0XF7,0XFF,0XFF,0XFF,0XFF,0XFF,0XFF,0XFF,0XF7,0XFE,0XDE,0X7E,
 904          0X83,0X38,0XBD,0X7F,0XC5,0XDF,0XC5,0XDF,0XCD,0XDF,0XCD,0XBF,0XC5,0X7F,0X72,0XD8,
 905          0XCD,0XDD,0XE7,0X3F,0XB5,0X1D,0XB5,0X3D,0XCE,0X3F,0XD6,0X5F,0XD6,0X5F,0XD6,0X5F,
 906          0XCE,0X3F,0X7B,0X37,0XAC,0XDE,0X8B,0XBA,0X8C,0X3D,0X9C,0XDE,0XC5,0XFF,0XC6,0X1F,
 907          0XAC,0X99,0XDD,0XFD,0XDE,0X9D,0XF7,0XDE,0XFF,0XDE,0XFF,0XFF,0XFF,0XDE,0XFF,0XFF,
 908          0XFF,0XFE,0XFF,0XFE,0XFF,0XFF,0XB4,0XF6,0XF7,0X9F,0XEF,0X9F,0XEF,0X9F,0XEF,0X9F,
 909          0XF7,0X9F,0XF7,0X9F,0XEF,0X9F,0XEF,0X9F,0XEF,0X9F,0XEF,0X9F,0XEF,0X9F,0XEF,0X9F,
 910          0XEF,0X9F,0XF7,0X9F,0XF7,0X9F,0XEF,0X9F,0XEF,0X7F,0X7B,0X35,0XB5,0X3F,0XB5,0X3F,
 911          0X8B,0XDB,0XBD,0X7E,0XCE,0X3F,0XCE,0X5F,0XD6,0X5F,0XCE,0X5F,0XCE,0X5F,0X73,0X36,
 912          0XC5,0XBF,0XD6,0X7F,0XDE,0XBE,0XF7,0XDF,0XF7,0XDF,0XF7,0XFF,0XF7,0XDF,0X94,0X18,
 913          0XB4,0XFE,0XC5,0XBF,0XC5,0XBF,0XC5,0XBF,0XC5,0XBF,0XC5,0XBE,0XC5,0XBF,0X7B,0X17,
 914          0XDE,0X9F,0XE7,0X5F,0XE7,0X3F,0XE7,0X1F,0XDE,0XFF,0XDE,0XFF,0XDE,0XFF,0XE7,0X1F,
 915          0XE7,0X1F,0XDF,0X1F,0XE7,0X3F,0XE7,0X5F,0XE7,0X5F,0XEF,0X5F,0XF7,0XBF,0XF7,0XFF,
 916          0XFF,0XFF,0XFF,0XFF,0XF7,0XFF,0XF7,0XBF,0XCD,0XBC,0X7A,0XD5,0X93,0XDB,0XB5,0X1E,
 917          0XC5,0X9F,0XB4,0XFD,0X62,0X35,0XB5,0X3B,0XF7,0XDF,0XD6,0X9E,0X83,0X77,0XCD,0XFF,
 918          0XCE,0X3F,0XD6,0X5F,0XD6,0X5F,0XD6,0X5F,0XD6,0X5F,0X6A,0XD6,0X8B,0X9A,0XB5,0X1F,
C51 COMPILER V9.60.0.0   LCDDRIVER                                                         05/03/2021 21:31:15 PAGE 16  

 919          0X8C,0X1C,0X8C,0X1D,0XC6,0X1F,0XCD,0XDE,0XB4,0XB9,0XDE,0X7E,0XDE,0X7D,0XF7,0XBF,
 920          0XFF,0XFF,0XFF,0XFF,0XFF,0XFF,0XFF,0XFF,0XFF,0XDF,0XFF,0XDF,0XFF,0XDE,0XD6,0X3A,
 921          0XF7,0X9F,0XEF,0X9F,0XEF,0X9F,0XF7,0X9F,0XF7,0X9F,0XF7,0X9F,0XEF,0X9F,0XEF,0X9F,
 922          0XEF,0X9F,0XEF,0X9F,0XEF,0X9F,0XEF,0X9F,0XEF,0X9F,0XF7,0X9F,0XF7,0X9F,0XEF,0X9F,
 923          0XE7,0X5F,0X8B,0X56,0XBD,0X1E,0XAC,0XDD,0X8C,0X19,0XCE,0X3F,0XCE,0X5F,0XCE,0X5F,
 924          0XD6,0X5F,0XCE,0X7F,0XCE,0X7F,0X83,0X77,0XC5,0XDF,0XCE,0X5E,0XDE,0XDF,0XF7,0XDF,
 925          0XF7,0XFF,0XF7,0XFF,0XF7,0XFF,0XEF,0X1F,0X7A,0XD6,0XC5,0X7F,0XC5,0XBF,0XC5,0XBE,
 926          0XC5,0XBF,0XC5,0XBF,0XA4,0X9C,0X7B,0X56,0XE7,0X3F,0XE7,0X3F,0XE7,0X3F,0XE7,0X1F,
 927          0XDE,0XFF,0XDE,0XFF,0XDE,0XDF,0XDE,0XFF,0XE7,0X1F,0XDF,0X1E,0XE7,0X3F,0XE7,0X5F,
 928          0XE7,0X5F,0XEF,0X5F,0XEF,0X7F,0XF7,0XDF,0XFF,0XFF,0XFF,0XFF,0XF7,0XFF,0XF7,0XFF,
 929          0XF7,0XDF,0XEF,0X7F,0XD6,0X3E,0XBD,0X7C,0XAC,0XBA,0XA4,0X58,0XDE,0XDF,0XEF,0XDF,
 930          0XE7,0X7F,0XC5,0XDF,0X83,0X78,0XD6,0X3F,0XD6,0X5F,0XD6,0X5F,0XD6,0X5F,0XD6,0X5F,
 931          0XD6,0X5F,0X6A,0XD6,0XB5,0X1F,0XB5,0X3F,0X94,0X3B,0X73,0XBB,0XBD,0XFF,0XB4,0XFA,
 932          0XC5,0X5A,0XD6,0X7E,0XDE,0X9E,0XDE,0XFE,0XF7,0XDF,0XFF,0XFF,0XFF,0XFF,0XFF,0XFF,
 933          0XFF,0XFE,0XFF,0XBF,0XEF,0X7D,0XF7,0X9E,0XEF,0X9F,0XEF,0X9F,0XF7,0X9F,0XF7,0X9F,
 934          0XF7,0X9F,0XEF,0X9F,0XEF,0X9F,0XEF,0X9F,0XEF,0X9F,0XEF,0X9F,0XEF,0X9F,0XEF,0X9F,
 935          0XEF,0X9F,0XF7,0X9F,0XEF,0X9F,0XEF,0X9F,0XE7,0X5F,0XAC,0X9B,0XB4,0X9D,0X9C,0X5B,
 936          0XC5,0XDF,0XCE,0X5F,0XCE,0X5F,0XCE,0X5F,0XD6,0X5F,0XD6,0X5F,0XD6,0X5F,0X7B,0X77,
 937          0XC5,0XBF,0XC5,0XFF,0XD6,0XBF,0XF7,0XDF,0XFF,0XFF,0XF7,0XFF,0XF7,0XFF,0XF7,0XDF,
 938          0XAC,0XDA,0X7B,0X37,0XBD,0X5F,0XC5,0X9F,0XC5,0X9F,0XA4,0X5D,0X93,0XBA,0XD6,0X5F,
 939          0XE7,0X1F,0XE7,0X3F,0XE7,0X1F,0XDE,0XFF,0XDE,0XFF,0XDE,0XFF,0XDE,0XDF,0XDE,0XDF,
 940          0XDE,0XDF,0XDE,0XFF,0XE7,0X3F,0XE7,0X3F,0XE7,0X5F,0XEF,0X5F,0XEF,0X5F,0XEF,0X7F,
 941          0XF7,0XBF,0XFF,0XFF,0XF7,0XFF,0XFF,0XFF,0XF7,0XDF,0XF7,0XFF,0XF7,0XDF,0XF7,0XDF,
 942          0XF7,0XDF,0XF7,0XDF,0XF7,0XDF,0XEF,0X9F,0XD6,0X9F,0XB5,0X3E,0X7B,0X57,0XD6,0X3F,
 943          0XD6,0X5F,0XD6,0X5F,0XD6,0X5F,0XD6,0X5F,0XD6,0X5F,0X72,0XF6,0XBD,0X1F,0X7B,0X57,
 944          0XD6,0X7F,0X94,0XFC,0XA5,0X3E,0XA4,0X37,0XE6,0X7E,0XDE,0X9F,0XDE,0X7E,0XD6,0X7D,
 945          0XF7,0XBF,0XF7,0XDE,0XF7,0XFF,0XFF,0XDE,0XFF,0XDE,0XE6,0XDC,0XF7,0X9E,0XFF,0XFF,
 946          0XF7,0X9F,0XEF,0X9F,0XF7,0X9F,0XF7,0X9F,0XF7,0X9F,0XF7,0X9F,0XEF,0X9F,0XEF,0X9F,
 947          0XEF,0X9F,0XEF,0X9F,0XEF,0X9F,0XEF,0X9F,0XEF,0X9F,0XF7,0X9F,0XEF,0X9F,0XEF,0X9F,
 948          0XE7,0X9F,0XBD,0X3B,0X93,0XFA,0X8B,0XD9,0XCE,0X1F,0XCE,0X5F,0XCE,0X5F,0XCE,0X5F,
 949          0XD6,0X5F,0XD6,0X5F,0XCE,0X3F,0X83,0X98,0XBD,0XBF,0XC5,0XDF,0XD6,0X3E,0XF7,0XBF,
 950          0XFF,0XFF,0XF7,0XFF,0XF7,0XFF,0XF7,0XFF,0XF7,0XDF,0XD6,0X5E,0X7B,0X15,0X7B,0X16,
 951          0X83,0X18,0XA4,0X79,0XE6,0XFF,0XE7,0X3F,0XE7,0X3F,0XE7,0X3F,0XE7,0X1F,0XD6,0XDF,
 952          0XD6,0XBF,0XDE,0XDF,0XD6,0X9F,0XDE,0XBF,0XDE,0XFF,0XDE,0XFF,0XE7,0X1F,0XE7,0X3F,
 953          0XE7,0X5F,0XEF,0X5F,0XEF,0X5F,0XEF,0X5F,0XEF,0X5F,0XEF,0X7F,0XF7,0XDF,0XF7,0XFF,
 954          0XF7,0XDF,0XF7,0XDF,0XFF,0XDF,0XF7,0XDF,0XF7,0XDF,0XF7,0XDF,0XE7,0X3F,0XDE,0XDF,
 955          0XCE,0X3F,0X9C,0X3B,0XAC,0XDC,0XD6,0X3F,0XCE,0X3F,0XD6,0X5F,0XD6,0X5F,0XD6,0X5F,
 956          0XD6,0X5F,0X8B,0XB9,0X93,0XFB,0XBD,0X5C,0XE7,0X7E,0XCE,0XBF,0X7B,0XB8,0XA4,0X57,
 957          0XDE,0X7E,0XDE,0X9F,0XDE,0X9F,0XDE,0X7E,0XE7,0X1E,0XF7,0XFF,0XFF,0XFE,0XFF,0XDF,
 958          0XE6,0XBD,0XE6,0XFC,0XFF,0XFF,0XFF,0XFF,0XF7,0X9F,0XEF,0X9F,0XF7,0X9F,0XF7,0X9F,
 959          0XF7,0X9F,0XEF,0X9F,0XEF,0X9F,0XEF,0X9F,0XEF,0X9F,0XEF,0X9F,0XEF,0X9F,0XEF,0X9F,
 960          0XEF,0X9F,0XF7,0X9F,0XEF,0X9F,0XEF,0X9F,0XEF,0X9F,0XE6,0XDF,0X62,0X74,0XCD,0XDF,
 961          0XCE,0X3F,0XCE,0X5F,0XCE,0X5F,0XCE,0X5F,0XD6,0X5F,0XD6,0X5F,0XCE,0X3F,0X7B,0X78,
 962          0XBD,0XBF,0XC5,0XDF,0XC5,0XDE,0XE7,0X1F,0XF7,0X9F,0XF7,0XFF,0XF7,0XFF,0XF7,0XFF,
 963          0XF7,0XFE,0XF7,0XFF,0XFF,0XDF,0XF7,0XBF,0XF7,0X9F,0XF7,0X9F,0XE7,0X5F,0XE7,0X5F,
 964          0XE7,0X3F,0XE7,0X1F,0XE7,0X1F,0XDE,0XFF,0XC6,0X1E,0XCE,0X5F,0XBD,0XBE,0XD6,0X9F,
 965          0XDE,0XDF,0XDE,0XFF,0XE7,0X1F,0XE7,0X3F,0XE7,0X5F,0XEF,0X5F,0XEF,0X5F,0XEF,0X5F,
 966          0XEF,0X5F,0XE7,0X3F,0XDF,0X1F,0XD6,0XFF,0XDE,0XDF,0XD6,0X7E,0XE7,0X3F,0XDF,0X1F,
 967          0XD6,0XDE,0XDE,0XDF,0XD6,0XDF,0XD6,0XBF,0XBD,0XBF,0X72,0XF6,0XC5,0XBE,0XD6,0X3F,
 968          0XCE,0X3F,0XD6,0X5F,0XD6,0X5F,0XD6,0X5F,0XD6,0X3F,0X7B,0X58,0X62,0X54,0XDE,0XDF,
 969          0XE7,0X5E,0XE7,0X5F,0XD6,0X1D,0XBD,0X5A,0XDE,0X9F,0XDE,0X9F,0XD6,0X9F,0XDE,0X9F,
 970          0XDE,0XBE,0XF7,0XDF,0XFF,0XFF,0XF7,0X7E,0XD6,0X7B,0XFF,0XDF,0XFF,0XFE,0XFF,0XFF,
 971          0XF7,0X9F,0XEF,0X9F,0XF7,0X9F,0XF7,0X9F,0XEF,0X9F,0XEF,0X9F,0XEF,0X9F,0XEF,0X9F,
 972          0XEF,0X9F,0XF7,0X9F,0XEF,0X7F,0XEF,0X7F,0XF7,0X9F,0XF7,0X9F,0XEF,0X9F,0XEF,0X9F,
 973          0XEF,0X7F,0XE7,0X3F,0X93,0XF9,0XD6,0X3F,0XCE,0X5F,0XCE,0X5F,0XCE,0X5F,0XCE,0X5F,
 974          0XD6,0X5F,0XCE,0X5F,0XCE,0X1E,0X7B,0X57,0XC5,0XDF,0XBD,0XBF,0XC5,0XDF,0XDE,0XDF,
 975          0XDE,0XDF,0XE7,0X3F,0XEF,0X9F,0XEF,0XBF,0XEF,0XDF,0XF7,0XDF,0XF7,0XBF,0XEF,0X9F,
 976          0XE7,0X3F,0XE7,0X3E,0XE7,0X5F,0XE7,0X3F,0XE7,0X5F,0XE7,0X3F,0XE7,0X1F,0XDE,0XFF,
 977          0XCE,0X5F,0XD6,0X9F,0XD6,0X5F,0XDE,0XBF,0XDE,0XFF,0XDE,0XFF,0XE7,0X1F,0XE7,0X3F,
 978          0XE7,0X5F,0XE7,0X5F,0XE7,0X5F,0XEF,0X5F,0XEF,0X5F,0XE7,0X3F,0XC5,0XFD,0XA5,0X1D,
 979          0XAD,0X1D,0XB5,0X9E,0XD6,0X9F,0XD6,0XBF,0XD6,0XBF,0XD6,0XDF,0XD6,0XDF,0XD6,0X9F,
 980          0XBD,0X9F,0X6A,0XD6,0XD6,0X1F,0XD6,0X3F,0XCE,0X3F,0XD6,0X5F,0XD6,0X5F,0XD6,0X5F,
C51 COMPILER V9.60.0.0   LCDDRIVER                                                         05/03/2021 21:31:15 PAGE 17  

 981          0XCE,0X3F,0X6A,0X95,0XC5,0X9F,0XCD,0XFF,0XDE,0XFF,0XEF,0X7F,0XC5,0X7A,0XD6,0X1D,
 982          0XDE,0X7E,0XD6,0X7E,0XD6,0X9F,0XDE,0X9F,0XDE,0X9E,0XF7,0XBF,0XFF,0XBF,0XD6,0X7B,
 983          0XFF,0XBE,0XFF,0XFF,0XFF,0XDE,0XFF,0XFF,0XEF,0X9F,0XEF,0X9F,0XF7,0X9F,0XF7,0X9F,
 984          0XEF,0X9F,0XEF,0X9F,0XE7,0X7F,0XAD,0XBD,0XCE,0X5E,0XE7,0X7F,0XEF,0X7F,0XEF,0X7F,
 985          0XF7,0X9F,0XEF,0X9F,0XEF,0X9F,0XEF,0X9F,0XEF,0X9F,0XC5,0XBD,0XBD,0X5D,0XD6,0X3F,
 986          0XD6,0X5F,0XD6,0X5F,0XCE,0X5F,0XCE,0X5F,0XD6,0X5F,0XCE,0X5F,0XCD,0XFF,0X8B,0XF9,
 987          0XBD,0X9F,0XBD,0XBF,0XC5,0XFF,0XD6,0XDF,0XD6,0XDF,0XC6,0X1F,0X9C,0XFC,0X9C,0XDC,
 988          0X9C,0XBC,0XAD,0X3D,0XDE,0XFF,0XDE,0XFF,0XE7,0X1F,0XE7,0X1F,0XE7,0X3F,0XE7,0X5F,
 989          0XE7,0X5F,0XE7,0X3F,0XE7,0X1F,0XDF,0X1F,0XDE,0XFF,0XDE,0XDF,0XDE,0XDF,0XDE,0XDF,
 990          0XDE,0XDF,0XDE,0XFF,0XE7,0X1F,0XE7,0X1F,0XE7,0X5F,0XE7,0X5F,0XE7,0X5F,0XE7,0X5F,
 991          0XE7,0X5F,0XEF,0X5F,0XE7,0X3F,0XE7,0X1F,0XDE,0XFF,0XD6,0XDE,0XBD,0X9E,0XCE,0X5F,
 992          0XD6,0X9F,0XBD,0XBF,0XD6,0XDE,0XCE,0X1F,0XAC,0XFD,0X83,0XB9,0XCE,0X5F,0XCE,0X5F,
 993          0XCE,0X5F,0XD6,0X7F,0XD6,0X5F,0XD6,0X7F,0XCE,0X1F,0X72,0XF5,0XCE,0X3F,0XCE,0X1F,
 994          0XC6,0X1E,0XE7,0X3F,0XB4,0XF9,0XDE,0X3E,0XD6,0X7E,0XD6,0X7E,0XDE,0X9F,0XDE,0X9F,
 995          0XDE,0X9E,0XEF,0X5E,0XD6,0X3B,0XEF,0X3D,0XFF,0XFE,0XFF,0XFE,0XFF,0XFF,0XFF,0XFF,
 996          0XEF,0X9F,0XEF,0X9F,0XEF,0X9F,0XEF,0X9F,0XEF,0X9F,0XEF,0X7F,0XD6,0XDF,0X94,0X9D,
 997          0XBD,0XFF,0XB5,0X7E,0XEF,0X7F,0XEF,0X9F,0XF7,0X9F,0XEF,0X9F,0XEF,0X9F,0XEF,0X9F,
 998          0XEF,0X7F,0X93,0XF8,0XD6,0X3F,0XD6,0X5F,0XD6,0X5F,0XD6,0X5F,0XCE,0X5F,0XCE,0X7F,
 999          0XD6,0X5F,0XD6,0X7F,0XB5,0X3D,0X94,0X3B,0XBD,0X9F,0XBD,0X7E,0XC6,0X1F,0XD6,0XDF,
1000          0XD6,0XBF,0XCE,0X9F,0XC6,0X5F,0XCE,0X7F,0XCE,0X7F,0XD6,0X9F,0XDE,0XDF,0XDE,0XFF,
1001          0XE7,0X1F,0XE7,0X1F,0XE7,0X3F,0XE7,0X5F,0XE7,0X3F,0XE7,0X3F,0XE7,0X1F,0XDF,0X1F,
1002          0XDE,0XFF,0XDE,0XFF,0XDE,0XFF,0XDE,0XFF,0XDF,0X1F,0XDE,0XFF,0XE7,0X1F,0XE7,0X3F,
1003          0XE7,0X5F,0XE7,0X5F,0XE7,0X5F,0XE7,0X5F,0XE7,0X5F,0XE7,0X5F,0XE7,0X3F,0XE7,0X1F,
1004          0XDE,0XDF,0XD6,0XBF,0XAD,0X1D,0XCE,0X1F,0XD6,0X9F,0XAC,0XFD,0XD6,0X9F,0XBD,0X9E,
1005          0X83,0XB9,0XC5,0X9E,0XCE,0X5F,0XCE,0X5F,0XD6,0X7F,0XD6,0X5F,0XD6,0X5F,0XCE,0X5F,
1006          0XCE,0X3F,0X7B,0X16,0XE7,0X1F,0XD6,0X9E,0XC6,0X1E,0XDE,0XDF,0XC5,0X7A,0XDE,0X3D,
1007          0XDE,0X9F,0XDE,0X9F,0XDE,0X9F,0XDE,0X9F,0XDE,0X7E,0XDE,0X5C,0XDE,0X7B,0XFF,0XDF,
1008          0XFF,0XFE,0XFF,0XFE,0XFF,0XFF,0XFF,0XFF,0XEF,0X9F,0XEF,0X9F,0XEF,0X9F,0XEF,0X9F,
1009          0XF7,0X9F,0XEF,0X7F,0XBE,0X1F,0XAD,0X9E,0XD6,0X9F,0X94,0X7C,0XCE,0XBF,0XEF,0X9F,
1010          0XEF,0X9F,0XEF,0X9F,0XEF,0X9F,0XEF,0X9F,0XD6,0X5D,0XAC,0X9A,0XD6,0X7F,0XD6,0X5F,
1011          0XD6,0X5F,0XD6,0X5F,0XD6,0X5F,0XD6,0X5F,0XCE,0X5F,0XD6,0X5F,0X9C,0X7B,0XB5,0X5E,
1012          0XBD,0X9F,0XBD,0X9F,0XAD,0X3D,0XDE,0XDF,0XCE,0X5F,0XBD,0XDE,0XCE,0XBF,0XD6,0X9F,
1013          0XCE,0X3F,0XD6,0XDF,0XDE,0XFF,0XDE,0XFF,0XE7,0X1F,0XE7,0X1F,0XE7,0X1F,0XE7,0X3F,
1014          0XE7,0X3F,0XE7,0X3F,0XE7,0X3F,0XDF,0X3F,0XDF,0X3E,0XDF,0X1E,0XDE,0XFE,0XE7,0X3F,
1015          0XE7,0X3F,0XE7,0X1F,0XE7,0X1F,0XDF,0X3E,0XDF,0X5F,0XE7,0X5F,0XE7,0X5F,0XE7,0X5F,
1016          0XE7,0X5F,0XEF,0X7F,0XE7,0X3F,0XE7,0X1F,0XDE,0XFF,0XDE,0XDF,0XB5,0X3D,0XC6,0X3F,
1017          0XD6,0XBF,0X9C,0X7B,0XC6,0X3F,0XBD,0XBF,0X73,0X17,0XCD,0XFF,0XD6,0X5F,0XD6,0X5F,
1018          0XD6,0X5F,0XD6,0X5F,0XD6,0X5F,0XD6,0X5F,0XC5,0XDF,0X83,0X57,0XE7,0X3E,0XE7,0X5F,
1019          0XDE,0XFF,0XE6,0XFF,0XD5,0XFC,0XD5,0XFD,0XDE,0X9F,0XDE,0XBF,0XDE,0X9F,0XDE,0X7E,
1020          0XDE,0X7E,0XBD,0X58,0XFF,0XBF,0XFF,0XFF,0XFF,0XFE,0XFF,0XFE,0XFF,0XFF,0XFF,0XFE,
1021          0XCE,0X7F,0XE7,0X5F,0XEF,0X9E,0XEF,0X7F,0XEF,0X7F,0XEF,0X5F,0X94,0X9B,0XC6,0X5F,
1022          0XCE,0X9F,0XAD,0X9E,0XBD,0XFE,0XEF,0X9F,0XEF,0X9F,0XEF,0X9F,0XEF,0X9F,0XEF,0X7F,
1023          0X9C,0X99,0XC5,0XBE,0XD6,0X5F,0XD6,0X5F,0XD6,0X7F,0XD6,0X5F,0XD6,0X5F,0XD6,0X5F,
1024          0XD6,0X5F,0XCE,0X3F,0X7B,0X78,0XBD,0X9F,0XBD,0X9E,0XB5,0X5F,0XA5,0X3E,0XD6,0XBF,
1025          0XCE,0X3F,0XAD,0X5D,0XD6,0XDF,0XCE,0X7F,0XAD,0X1D,0XD6,0XBF,0XDE,0XFF,0XDE,0XFF,
1026          0XE7,0X1F,0XE7,0X1F,0XE7,0X1F,0XE7,0X3F,0XDE,0XFF,0XDE,0XFF,0XD6,0XBF,0XC6,0X1F,
1027          0XBD,0XBD,0XAD,0X7C,0X94,0X9A,0X94,0XBB,0X94,0XBB,0X7C,0X39,0X8C,0X39,0X8C,0X18,
1028          0X9C,0XDB,0XE7,0X3F,0XE7,0X5F,0XE7,0X5F,0XE7,0X5F,0XE7,0X5F,0XE7,0X3F,0XE7,0X1F,
1029          0XE7,0X1F,0XDE,0XFF,0XB5,0X9D,0XC6,0X1F,0XD6,0XDF,0XC5,0XFE,0XB5,0X9E,0XBD,0X7F,
1030          0X62,0XB4,0XCE,0X1F,0XCE,0X5F,0XD6,0X7F,0XD6,0X5F,0XD6,0X5F,0XD6,0X5F,0XCE,0X3F,
1031          0XBD,0X7D,0X72,0XD5,0XD6,0X7F,0XE7,0X7F,0XDF,0X1F,0XCE,0X9E,0XE6,0XDF,0XBD,0X19,
1032          0XDE,0X9E,0XDE,0X9F,0XDE,0X9F,0XD6,0X9E,0XC5,0X9B,0XDE,0XBC,0XFF,0XDF,0XFF,0XFF,
1033          0XFF,0XFE,0XFF,0XFE,0XFF,0XFE,0XFF,0XFE,0XA5,0X3D,0X9D,0X1C,0XE7,0X5F,0XEF,0X7F,
1034          0XEF,0X7F,0XCE,0X9F,0X9D,0X1D,0XCE,0X9E,0XD6,0XBF,0XB5,0XBE,0XB5,0XBE,0XEF,0X7F,
1035          0XEF,0X9F,0XEF,0X9F,0XEF,0X7F,0XE7,0X1F,0X83,0X76,0XD6,0X3F,0XD6,0X5F,0XD6,0X5F,
1036          0XD6,0X7F,0XD6,0X5F,0XD6,0X5F,0XD6,0X5F,0XD6,0X5F,0XCE,0X3F,0X6B,0X39,0XB5,0XBF,
1037          0XB5,0X9F,0XA5,0X1E,0XB5,0XBF,0XD6,0XDF,0XC5,0XFF,0XB5,0X7E,0XD6,0XDF,0XCE,0X7F,
1038          0XA4,0XBC,0XDE,0XDF,0XDE,0XFF,0XDE,0XFF,0XE7,0X1F,0XE7,0X1F,0XE7,0X3F,0XE7,0X3F,
1039          0XA5,0X3C,0XB5,0XBC,0XCE,0X7E,0XC6,0X1C,0XCE,0X7E,0XD6,0X9E,0XDE,0XFF,0XDF,0X3F,
1040          0XE7,0X5F,0XE7,0X7F,0XE7,0X7F,0XF7,0X9F,0XB5,0X9C,0XDE,0XBF,0XE7,0X3F,0XE7,0X5F,
1041          0XE7,0X5F,0XE7,0X5F,0XE7,0X5F,0XE7,0X1F,0XE7,0X3F,0XDF,0X3F,0XD6,0XBF,0XD6,0X9F,
1042          0XD6,0XDE,0XCE,0X7F,0XBD,0XBE,0XAC,0XFD,0X94,0X5A,0XCE,0X3F,0XD6,0X7F,0XD6,0X7F,
C51 COMPILER V9.60.0.0   LCDDRIVER                                                         05/03/2021 21:31:15 PAGE 18  

1043          0XD6,0X5F,0XD6,0X5F,0XD6,0X5F,0XCE,0X3F,0X9C,0X9B,0XAC,0XBB,0XA4,0XBA,0XE7,0X3F,
1044          0XD6,0XBF,0XB5,0XBD,0XEF,0X7F,0XB4,0X98,0XDE,0XBE,0XD6,0X7F,0XDE,0X9F,0XDE,0X9E,
1045          0XBD,0X59,0XFF,0XDF,0XFF,0XFF,0XFF,0XFF,0XFF,0XFE,0XFF,0XFE,0XFF,0XFE,0XFF,0XFF,
1046          0XD6,0XBF,0XAD,0X7E,0XB5,0X9D,0XEF,0X7F,0XEF,0X7F,0XAD,0X7D,0XBD,0XFE,0XD6,0XBE,
1047          0XD6,0X9F,0XB5,0XDF,0XAD,0X9D,0XEF,0X7F,0XEF,0X7F,0XEF,0X7F,0XEF,0X7F,0XBD,0X9C,
1048          0XAC,0XDB,0XCE,0X3F,0XD6,0X5F,0XD6,0X5F,0XD6,0X5F,0XD6,0X5F,0XCE,0X5F,0XD6,0X5F,
1049          0XD6,0X5F,0XC5,0XFF,0X6B,0X3B,0XAD,0X7F,0XB5,0X9E,0XA4,0XDE,0XBD,0XFF,0XDE,0XFF,
1050          0XBD,0XDE,0XB5,0X7E,0XD6,0XDF,0XCE,0X9F,0XBD,0XBE,0XDE,0XDF,0XDE,0XFF,0XDF,0X1F,
1051          0XE7,0X3F,0XE7,0X1F,0XE7,0X3F,0XDF,0X1F,0XA4,0XFC,0XE7,0X3F,0XF7,0X9F,0XF7,0XBF,
1052          0XEF,0XBF,0XEF,0XBF,0XF7,0XBE,0XF7,0XDF,0XEF,0XDF,0XEF,0XDE,0XEF,0XBF,0XEF,0X9F,
1053          0XC6,0X5E,0XB5,0X9D,0XDF,0X5E,0XE7,0X5F,0XE7,0X5F,0XE7,0X5F,0XE7,0X5F,0XE7,0X5F,
1054          0XE7,0X3F,0XE7,0X1F,0XDE,0XFF,0XDE,0XFF,0XDE,0XFF,0XC5,0XFF,0XB5,0X9E,0X8B,0XF9,
1055          0XBD,0XBF,0XCE,0X3F,0XCE,0X1F,0XD6,0X5F,0XD6,0X5F,0XD6,0X5F,0XD6,0X5F,0XCE,0X3F,
1056          0X93,0XF9,0XCE,0X3E,0X94,0X18,0XC5,0XBC,0XBE,0X3E,0XB5,0X9C,0XEF,0X9F,0XBD,0X3A,
1057          0XD6,0X1D,0XDE,0X7E,0XDE,0X7F,0XDE,0X7F,0XCE,0X5C,0XF7,0XFF,0XFF,0XFE,0XFF,0XFE,
1058          0XFF,0XFF,0XFF,0XFE,0XFF,0XFE,0XFF,0XDE,0XD6,0XBF,0XD6,0X9F,0X9C,0XBD,0XDE,0XFF,
1059          0XDF,0X1F,0X8C,0X9B,0XD6,0X9F,0XDE,0XFF,0XDE,0XBF,0XA5,0X3E,0XC5,0XFE,0XEF,0X7F,
1060          0XEF,0X9F,0XEF,0X7F,0XEF,0X7F,0X8B,0XB6,0XCD,0XFE,0XD6,0X3F,0XD6,0X5F,0XD6,0X5F,
1061          0XD6,0X5F,0XD6,0X5F,0XCE,0X5F,0XD6,0X5F,0XD6,0X7F,0XAC,0XFC,0X73,0X3C,0XA4,0XDF,
1062          0XBD,0XBF,0XC6,0X1F,0XCE,0X7F,0XD6,0XDF,0XCE,0X9E,0XC6,0X3F,0XD6,0XDF,0XD6,0XDF,
1063          0XDE,0XDF,0XDE,0XFF,0XE7,0X1F,0XDF,0X1F,0XE7,0X1F,0XE7,0X1F,0XE7,0X1F,0XDF,0X1F,
1064          0X84,0X1D,0X5A,0XD9,0X84,0X1B,0X9C,0XDD,0X94,0XDD,0X9C,0XDD,0X9C,0XFD,0XA5,0X7F,
1065          0X94,0XBD,0X8C,0X7D,0X8C,0X5D,0X7B,0XDC,0X6B,0X9D,0X8C,0X7D,0XE7,0X3F,0XE7,0X7F,
1066          0XEF,0X5F,0XE7,0X5F,0XE7,0X5F,0XE7,0X5F,0XE7,0X5F,0XE7,0X1F,0XE7,0X1F,0XDF,0X1F,
1067          0XD6,0XDF,0XBD,0XBF,0XC5,0XBF,0X83,0X99,0XCE,0X5F,0XC5,0XFF,0XB5,0X3D,0XCE,0X5F,
1068          0XD6,0X5F,0XD6,0X5F,0XD6,0X5F,0XCE,0X3F,0X6A,0XD4,0XD6,0XBF,0XDE,0XBF,0X83,0X98,
1069          0X83,0XFA,0XDF,0X1F,0XEF,0XBF,0XE6,0X5D,0XCD,0X9C,0XDE,0X9F,0XDE,0X9E,0XDE,0X7E,
1070          0XEF,0X5F,0XF7,0XFE,0XFF,0XFF,0XFF,0XFE,0XFF,0XFE,0XFF,0XFE,0XFF,0XFF,0XFF,0XFE,
1071          0XD6,0XDF,0XD6,0XDF,0XB5,0XBF,0XB5,0XDE,0XC6,0X5F,0X9C,0XDC,0XDE,0XFE,0XDE,0XFF,
1072          0XDE,0XBF,0X84,0X3C,0XD6,0XFF,0XEF,0X7F,0XF7,0X9F,0XEF,0X9F,0XDE,0X9F,0X6A,0XB6,
1073          0XA4,0X7D,0XC5,0XFF,0XCE,0X5F,0XD6,0X5F,0XD6,0X5F,0XD6,0X5F,0XCE,0X5F,0XD6,0X5F,
1074          0XD6,0X5F,0X94,0X19,0XA4,0XBF,0X94,0X7E,0XB5,0X9F,0XCE,0X9F,0XD6,0XBF,0XD6,0XDF,
1075          0XD6,0XDF,0XD6,0XDE,0XD6,0XDF,0XD6,0XDF,0XDE,0XDF,0XDF,0X1F,0XE7,0X1F,0XE7,0X1F,
1076          0XE7,0X1F,0XE7,0X1F,0XE7,0X3F,0XDE,0XDF,0X7B,0XFE,0X52,0XBC,0X52,0XDB,0X52,0XBB,
1077          0X52,0XDB,0X52,0XBC,0X52,0XBB,0X52,0X9B,0X4A,0X7A,0X52,0XDC,0X52,0X9B,0X52,0X9C,
1078          0X52,0X9D,0X84,0X3C,0XE7,0X3F,0XE7,0X5F,0XEF,0X5F,0XE7,0X5F,0XE7,0X5F,0XE7,0X5F,
1079          0XE7,0X5F,0XE7,0X1F,0XE7,0X3F,0XDF,0X1F,0XCE,0X7E,0XBD,0XDF,0XC5,0XBF,0X6B,0X16,
1080          0XCE,0X5F,0XCD,0XFF,0XAC,0XFC,0XD6,0X5F,0XD6,0X5F,0XD6,0X5F,0XD6,0X5F,0XCE,0X3F,
1081          0X7B,0X56,0XE7,0X3F,0XCE,0X9F,0X5A,0X96,0XC5,0XDF,0XEF,0X7F,0XEF,0XBF,0XF7,0X3F,
1082          0XB4,0XB7,0XDE,0X7E,0XDE,0X9E,0XDE,0X7E,0XEF,0X7F,0XF7,0XFE,0XFF,0XFF,0XFF,0XFE,
1083          0XFF,0XFE,0XFF,0XFE,0XFF,0XFE,0XFF,0XFE,0XDE,0XFF,0XDE,0XFF,0XCE,0X9F,0X8C,0X5C,
1084          0X84,0X5B,0XD6,0XBF,0XDE,0XFF,0XD6,0XFF,0XD6,0XBF,0X8C,0X9C,0XE7,0X3F,0XEF,0X7F,
1085          0XEF,0XBF,0XE7,0X7F,0XBD,0XBF,0X73,0X38,0XAD,0X5E,0X8C,0X3C,0XCE,0X3F,0XD6,0X5F,
1086          0XD6,0X5F,0XD6,0X7F,0XD6,0X7F,0XD6,0X5F,0XD6,0X3F,0X83,0X98,0XBD,0X7F,0X7B,0XBB,
1087          0XBD,0XDF,0XDE,0XFF,0XD6,0XFF,0XDE,0XDF,0XDE,0XFF,0XDE,0XFF,0XDE,0XFF,0XDF,0X1F,
1088          0XE7,0X1F,0XE7,0X1F,0XE7,0X1F,0XE7,0X3F,0XE7,0X3F,0XE7,0X1F,0XE7,0X1F,0XDE,0XFF,
1089          0X63,0X3B,0X52,0X9D,0X5A,0XDD,0X52,0XDC,0X52,0XBC,0X5A,0XBD,0X52,0X9D,0X52,0XBD,
1090          0X52,0X9C,0X52,0X9C,0X52,0X9C,0X52,0XBD,0X5A,0XDD,0X73,0XBB,0XDF,0X5F,0XE7,0X5F,
1091          0XE7,0X5F,0XE7,0X5F,0XE7,0X5F,0XE7,0X5F,0XE7,0X5F,0XDF,0X3F,0XE7,0X3F,0XDF,0X1F,
1092          0XC6,0X3E,0XC5,0XFF,0XAD,0X1D,0X94,0X3A,0XCE,0X3F,0XC5,0XBF,0XAD,0X1D,0XCE,0X3F,
1093          0XD6,0X7F,0XD6,0X7F,0XD6,0X5F,0XCE,0X1F,0X8C,0X19,0XC6,0X1F,0X73,0XB9,0XA4,0XDD,
1094          0XA4,0X79,0XEF,0X7F,0XEF,0X9F,0XEF,0X3F,0XBC,0XD9,0XDE,0X7E,0XD6,0X9E,0XDE,0X9E,
1095          0XF7,0XBF,0XF7,0XFF,0XF7,0XFF,0XFF,0XDE,0XFF,0XFF,0XFF,0XFE,0XFF,0XFF,0XFF,0XDE,
1096          0XD6,0XDF,0XDE,0XFF,0XDE,0XFF,0X8C,0X7C,0X8C,0X9C,0XDE,0XFF,0XE7,0X1F,0XDF,0X1F,
1097          0XCE,0X7F,0XB5,0XDE,0XE7,0X7F,0XE7,0X7F,0XE7,0X7F,0X9D,0X3C,0XAD,0X3E,0XD6,0X7F,
1098          0XCE,0X7F,0X94,0X7D,0XC5,0XDF,0XCE,0X5F,0XD6,0X5F,0XD6,0X5F,0XD6,0X7F,0XD6,0X7F,
1099          0XCD,0XFF,0X62,0XB4,0XC5,0XDF,0X62,0XB8,0XC6,0X1F,0XE7,0X1F,0XDE,0XFF,0XDE,0XFF,
1100          0XDE,0XFF,0XDE,0XFF,0XDF,0X1F,0XDF,0X1F,0XE7,0X1F,0XE7,0X3F,0XE7,0X3F,0XE7,0X3F,
1101          0XE7,0X3F,0XE7,0X3F,0XE7,0X5F,0XDE,0XFF,0X6B,0X9D,0X52,0XBC,0X52,0XBC,0X52,0XBC,
1102          0X52,0XBC,0X52,0XBD,0X52,0XBD,0X52,0XBD,0X52,0X9D,0X52,0X9D,0X52,0X9D,0X52,0X9D,
1103          0X52,0X9C,0X7B,0XDC,0XE7,0X5F,0XE7,0X5F,0XE7,0X5F,0XE7,0X5F,0XE7,0X5F,0XE7,0X5F,
1104          0XE7,0X5F,0XDF,0X3F,0XE7,0X3F,0XDE,0XFE,0XC5,0XFF,0XCD,0XFF,0X94,0X3A,0XBD,0X9E,
C51 COMPILER V9.60.0.0   LCDDRIVER                                                         05/03/2021 21:31:15 PAGE 19  

1105          0XCE,0X5F,0XBD,0X9E,0XB5,0X3D,0XD6,0X5F,0XD6,0X7F,0XD6,0X7F,0XCE,0X5F,0XAD,0X3D,
1106          0X73,0X9A,0X84,0X3B,0XD6,0XBF,0XE6,0XDF,0X7B,0X13,0XEF,0X7F,0XEF,0X9F,0XDE,0XBE,
1107          0XBC,0XF9,0XDE,0X7E,0XDE,0XBE,0XD6,0XBE,0XF7,0XDF,0XF7,0XFF,0XF7,0XFF,0XFF,0XFF,
1108          0XFF,0XFF,0XFF,0XFF,0XFF,0XFF,0XFF,0XFF,0XDE,0XFF,0XE7,0X1F,0XE7,0X1F,0XA5,0X1E,
1109          0XC6,0X1F,0XE7,0X1F,0XE7,0X3F,0XDF,0X1F,0XB5,0X9D,0XCE,0XBF,0XE7,0X9F,0XE7,0X7F,
1110          0XAD,0X7D,0XAD,0X5C,0XD6,0XDF,0XD6,0XDF,0XD6,0X9F,0X8C,0X3C,0XC6,0X1F,0XCE,0X5F,
1111          0XD6,0X5F,0XD6,0X5F,0XCE,0X5F,0XD6,0X5F,0XAC,0XFC,0X9C,0X7B,0XAC,0XDD,0X93,0XFD,
1112          0XBD,0XFE,0XDF,0X1F,0XDF,0X1F,0XE7,0X1F,0XDF,0X1F,0XDF,0X1F,0XDF,0X1F,0XE7,0X3F,
1113          0XE7,0X1F,0XE7,0X3F,0XE7,0X3F,0XE7,0X5F,0XE7,0X5F,0XE7,0X5F,0XE7,0X5F,0XD6,0XFF,
1114          0X73,0XFD,0X52,0X7C,0X52,0XBC,0X52,0XBC,0X52,0X9C,0X52,0XBC,0X52,0XBC,0X63,0X1D,
1115          0X63,0X3E,0X5A,0XDD,0X5A,0XFD,0X52,0X9C,0X52,0X9B,0X7B,0XDB,0XE7,0X5F,0XE7,0X5F,
1116          0XE7,0X5F,0XE7,0X5F,0XE7,0X5F,0XE7,0X5F,0XE7,0X5F,0XDF,0X3F,0XE7,0X3F,0XD6,0X9F,
1117          0XC5,0XFF,0XCD,0XDF,0X73,0X16,0XCD,0XFF,0XCE,0X5F,0XB5,0X3D,0XAC,0XDC,0XD6,0X5F,
1118          0XD6,0X7F,0XD6,0X5F,0XD6,0X5F,0X83,0X97,0XC6,0X1F,0XE7,0X5F,0XE7,0X7E,0XEF,0X7F,
1119          0X83,0X55,0XEF,0X5F,0XEF,0X9F,0XC5,0XDB,0XD5,0XFD,0XDE,0XBE,0XDE,0X9E,0XE6,0XFE,
1120          0XF7,0XFE,0XF7,0XFF,0XFF,0XFF,0XFF,0XFF,0XFF,0XFF,0XFF,0XFF,0XFF,0XFF,0XFF,0XFF,
1121          0XDE,0XFF,0XE7,0X3F,0XCE,0X7F,0X94,0XBC,0XE7,0X1F,0XE7,0X3F,0XE7,0X3F,0XD6,0XFF,
1122          0X9C,0XDB,0XE7,0X5F,0XE7,0X7F,0XB5,0X9D,0XAD,0X7E,0XDE,0XDF,0XDE,0XDF,0XDE,0XFF,
1123          0XBE,0X1F,0X9C,0XBD,0XC6,0X3F,0XCE,0X5F,0XCE,0X5F,0XD6,0X7F,0XD6,0X5F,0XD6,0X5F,
1124          0X8B,0XD9,0XA4,0XBE,0X7B,0X58,0XA4,0XFF,0X8C,0X5B,0XE7,0X1F,0XDF,0X3F,0XE7,0X5F,
1125          0XE7,0X3F,0XE7,0X3F,0XE7,0X3F,0XDF,0X1F,0XDF,0X3F,0XDF,0X3F,0XE7,0X5F,0XE7,0X5F,
1126          0XE7,0X5F,0XE7,0X5F,0XE7,0X5F,0XE7,0X3F,0X63,0X7A,0X52,0XBC,0X63,0X3E,0X6B,0X5D,
1127          0X84,0X3F,0X8C,0X7F,0X9C,0XBF,0X9C,0XDF,0X9C,0XBF,0X9C,0XBF,0X9C,0XBF,0X8C,0X7F,
1128          0X73,0XDE,0X8C,0X9D,0XE7,0X5F,0XE7,0X5F,0XE7,0X5F,0XE7,0X5F,0XE7,0X5F,0XE7,0X5F,
1129          0XE7,0X5F,0XE7,0X5F,0XE7,0X5F,0XCE,0X3E,0XC5,0XFF,0XC5,0XBF,0X52,0X33,0XCE,0X3F,
1130          0XCE,0X3F,0XBD,0X5E,0X9C,0X5A,0XCE,0X5F,0XD6,0X5F,0XD6,0X5F,0XD6,0X5F,0X7B,0X55,
1131          0XE7,0X5F,0XEF,0X9F,0XEF,0X7F,0XEF,0X7F,0X7B,0X34,0XEF,0X3F,0XEF,0X9F,0XB5,0X19,
1132          0XDE,0X5E,0XDE,0X9E,0XDE,0X9D,0XEF,0X7F,0XF7,0XFF,0XFF,0XFF,0XFF,0XFF,0XFF,0XFF,
1133          0XFF,0XFF,0XFF,0XFF,0XFF,0XFF,0XFF,0XFF,0XDF,0X1F,0XDF,0X1E,0XAD,0X5C,0XCE,0X7F,
1134          0XE7,0X7F,0XE7,0X5F,0XEF,0X5F,0XCE,0X5F,0XA5,0X3C,0XE7,0X7F,0XB6,0X1E,0XA5,0X3D,
1135          0XDF,0X1F,0XE7,0X1F,0XDE,0XFF,0XCE,0XDE,0X84,0X3B,0XC5,0XDF,0XCE,0X5F,0XCE,0X5F,
1136          0XCE,0X5F,0XCE,0X5F,0XD6,0X5F,0XCE,0X1F,0X8B,0XF9,0XC5,0XDF,0X7B,0X39,0X9C,0XBE,
1137          0X7B,0XBA,0XDE,0XDF,0XDF,0X3E,0XE7,0X3F,0XE7,0X3F,0XE7,0X5F,0XE7,0X5F,0XE7,0X5F,
1138          0XE7,0X5F,0XE7,0X5F,0XE7,0X5F,0XE7,0X5F,0XE7,0X5F,0XE7,0X5F,0XE7,0X5F,0XE7,0X5F,
1139          0X8C,0X9D,0X6B,0X7E,0X94,0X9F,0X9C,0XDF,0X9C,0XDF,0XA4,0XDF,0XA4,0XDF,0XA4,0XDF,
1140          0XAC,0XDF,0XAC,0XDF,0XAC,0XDF,0XA4,0XFF,0X8C,0X9F,0XA5,0X3D,0XE7,0X5F,0XE7,0X5F,
1141          0XEF,0X5F,0XE7,0X5F,0XE7,0X5F,0XE7,0X5F,0XE7,0X5F,0XE7,0X5F,0XE7,0X3F,0XC5,0XFE,
1142          0XC5,0XFF,0XBD,0XDF,0X73,0X17,0XCE,0X3F,0XCE,0X5F,0XAC,0XFC,0XAC,0XFD,0XD6,0X5F,
1143          0XCE,0X5F,0XCE,0X3F,0XCD,0XFE,0X94,0X38,0XEF,0X9F,0XEF,0X9F,0XEF,0X7F,0XEF,0X7F,
1144          0X8B,0XB6,0XDE,0XDF,0XEF,0X7F,0XBC,0XD8,0XDE,0X5E,0XDE,0X7E,0XD6,0X9D,0XF7,0XBF,
1145          0XFF,0XFF,0XFF,0XFF,0XFF,0XFF,0XFF,0XFF,0XFF,0XFF,0XFF,0XFF,0XFF,0XFF,0XFF,0XFF,
1146          0XDF,0X3E,0XD6,0XBF,0XA5,0X3D,0XE7,0X3F,0XEF,0X5F,0XE7,0X5F,0XE7,0X3F,0X8C,0X9B,
1147          0XCE,0XBF,0XB5,0XFE,0X94,0XFB,0XDF,0X1F,0XDF,0X3E,0XE7,0X1F,0XDE,0XFF,0XAD,0X9F,
1148          0X94,0XBD,0XD6,0X5F,0XCE,0X5F,0XCE,0X5F,0XCE,0X5F,0XCE,0X5F,0XD6,0X3F,0XBD,0X7E,
1149          0X8C,0X1B,0XBD,0XBF,0X73,0X17,0XDE,0XBF,0XAD,0X7C,0XB5,0X7E,0XDF,0X3F,0XE7,0X5F,
1150          0XE7,0X5F,0XE7,0X5F,0XE7,0X5F,0XE7,0X5F,0XE7,0X5F,0XE7,0X5F,0XE7,0X5F,0XE7,0X5F,
1151          0XE7,0X5F,0XE7,0X5F,0XE7,0X5F,0XE7,0X3F,0XBD,0XFE,0X7B,0XDE,0X9C,0XFF,0XA4,0XDF,
1152          0XA4,0XDF,0XAC,0XDF,0XA4,0XBF,0XAC,0XDF,0XAC,0XDF,0XAC,0XFF,0XAC,0XFF,0XA4,0XFF,
1153          0X73,0XDD,0XC6,0X5F,0XDF,0X3E,0XE7,0X5F,0XE7,0X5F,0XE7,0X5F,0XE7,0X5F,0XE7,0X5F,
1154          0XE7,0X5F,0XE7,0X5F,0XDE,0XFF,0XC5,0XFF,0XC6,0X1E,0X94,0X7B,0X83,0XB9,0XCE,0X3F,
1155          0XCE,0X5F,0XB5,0X3D,0X9C,0X7B,0XD6,0X5F,0XD6,0X5F,0XD6,0X5F,0X94,0X38,0XCE,0X3D,
1156          0XEF,0X7F,0XEF,0X9F,0XF7,0X9F,0XEF,0X9F,0X8B,0XB6,0XD6,0X9E,0XEF,0X7F,0XAC,0X56,
1157          0XDE,0X7E,0XDE,0X9E,0XE6,0XDD,0XFF,0XDF,0XFF,0XFF,0XF7,0XFF,0XFF,0XFF,0XFF,0XFF,
1158          0XFF,0XFF,0XFF,0XFF,0XFF,0XFF,0XFF,0XFF,0XDF,0X1F,0XAD,0X5D,0XCE,0XBF,0XE7,0X7F,
1159          0XEF,0X5F,0XEF,0X5F,0XC6,0X1F,0X94,0XFC,0XBD,0XDE,0XAD,0X7E,0XDE,0XFF,0XE7,0X3E,
1160          0XE7,0X3F,0XE7,0X1E,0XCE,0X5F,0X8C,0X7D,0XC5,0XFF,0XD6,0X3F,0XCE,0X5F,0XCE,0X5F,
1161          0XCE,0X5F,0XCE,0X3F,0XCE,0X3F,0X83,0XB7,0XA5,0X1E,0X7C,0X1C,0X62,0XB8,0XD6,0X7F,
1162          0XCE,0XBF,0X83,0XDA,0XD6,0XBF,0XE7,0X1F,0XE7,0X3F,0XE7,0X5F,0XE7,0X5F,0XE7,0X5F,
1163          0XE7,0X5F,0XE7,0X5F,0XE7,0X3F,0XDF,0X3F,0XE7,0X5F,0XE7,0X5F,0XE7,0X5F,0XE7,0X5F,
1164          0XD6,0XFF,0X7B,0XDC,0X9C,0XBF,0X9C,0XDF,0XA4,0XDF,0XA4,0XDF,0XAC,0XDF,0XAC,0XDF,
1165          0XAC,0XFF,0XAC,0XDF,0XA4,0XFF,0X9C,0XDF,0X7B,0XFD,0XDF,0X1F,0XDF,0X3F,0XDF,0X3F,
1166          0XE7,0X5F,0XE7,0X5F,0XE7,0X5F,0XEF,0X7F,0XE7,0X5F,0XE7,0X5F,0XDE,0XFF,0XC5,0XFF,
C51 COMPILER V9.60.0.0   LCDDRIVER                                                         05/03/2021 21:31:15 PAGE 20  

1167          0XC5,0XFF,0X8C,0X39,0XA4,0XFC,0XCE,0X5F,0XCE,0X5F,0XAD,0X1D,0XA4,0X9C,0XD6,0X7F,
1168          0XCE,0X3F,0XD6,0X5F,0X5A,0X71,0XEF,0X3F,0XEF,0X7F,0XEF,0X9F,0XEF,0X9F,0XEF,0X9F,
1169          0XAC,0X9A,0XDE,0XBE,0XEF,0X5F,0XB4,0X77,0XDE,0X9E,0XDE,0X7E,0XE6,0XFE,0XFF,0XFF,
1170          0XFF,0XFF,0XFF,0XFF,0XFF,0XFF,0XFF,0XFF,0XFF,0XFF,0XFF,0XFF,0XFF,0XFF,0XFF,0XFF,
1171          0XCE,0X5F,0XBD,0XBE,0XDF,0X1F,0XE7,0X5F,0XEF,0X5F,0XE7,0X3F,0X94,0X9C,0XAD,0X5F,
1172          0XAD,0X3C,0XE7,0X1F,0XE7,0X3E,0XE7,0X3F,0XE7,0X5F,0XCE,0XBF,0X84,0X1B,0XB5,0X3E,
1173          0XD6,0X3F,0XD6,0X3F,0XD6,0X3F,0XCE,0X5F,0XD6,0X5F,0XCE,0X3F,0XC6,0X1F,0X83,0X96,
1174          0XE7,0X5F,0XD6,0XDF,0X62,0XB5,0X8C,0X5A,0X8C,0X5A,0XBD,0XBF,0X83,0XB8,0XE6,0XFF,
1175          0XE7,0X3F,0XE7,0X5F,0XE7,0X5F,0XE7,0X5F,0XE7,0X5F,0XE7,0X5F,0XE7,0X5F,0XE7,0X3F,
1176          0XE7,0X5F,0XE7,0X3F,0XE7,0X5F,0XE7,0X3F,0XDF,0X1F,0XAD,0X7E,0X6B,0XBC,0X9C,0XBF,
1177          0XA4,0XDF,0XA4,0XBF,0XAC,0XDF,0XAC,0XDF,0XAC,0XFF,0XA4,0XDF,0XA4,0XFF,0X8C,0X7F,
1178          0X84,0X5B,0XE7,0X3F,0XE7,0X5F,0XE7,0X5F,0XE7,0X5F,0XE7,0X5F,0XE7,0X5F,0XE7,0X3F,
1179          0XE7,0X5F,0XE7,0X5F,0XD6,0XBF,0XC5,0XFF,0X94,0XBC,0X62,0X95,0XC5,0XBE,0XCE,0X5F,
1180          0XCE,0X5F,0XB5,0X3D,0X94,0X19,0XD6,0X5F,0XCE,0X3F,0XBD,0X9E,0XA4,0XB9,0XEF,0X7F,
1181          0XEF,0X9F,0XEF,0X9F,0XEF,0X9F,0XEF,0X9F,0X83,0X55,0XE7,0X1F,0XEF,0X5F,0XB4,0XB8,
1182          0XDE,0X9E,0XDE,0X7F,0XEF,0X3E,0XFF,0XFF,0XFF,0XFF,0XFF,0XDE,0XFF,0XFF,0XFF,0XFF,
1183          0XFF,0XFF,0XFF,0XFF,0XFF,0XFF,0XFF,0XFF,0XB5,0X5D,0XDE,0XFE,0XDF,0X1F,0XE7,0X3F,
1184          0XE7,0X3F,0XDE,0XFF,0X8C,0X7D,0XB5,0X9E,0XE7,0X3F,0XE7,0X7F,0XE7,0X5F,0XE7,0X3F,
1185          0XD6,0X9F,0X84,0X3A,0X9C,0XBC,0XAC,0XBB,0XCE,0X3F,0XCE,0X3F,0XC6,0X1F,0XCE,0X3F,
1186          0XCE,0X5F,0XCE,0X5F,0XAC,0XFC,0XB5,0X9B,0XEF,0X7E,0XDE,0XFF,0X83,0X55,0XEF,0X7F,
1187          0XE7,0X5F,0XEF,0X5F,0XBD,0X5C,0X7B,0X76,0XD6,0XBF,0XE7,0X3F,0XDF,0X5F,0XDF,0X5F,
1188          0XDF,0X5F,0XE7,0X5F,0XE7,0X5F,0XE7,0X3F,0XE7,0X5F,0XE7,0X3F,0XE7,0X5F,0XE7,0X5F,
1189          0XE7,0X3F,0XDE,0XFF,0X7B,0XFB,0X8C,0X5E,0XA4,0XDF,0XA4,0XDF,0XA4,0XDF,0XA4,0XDF,
1190          0XAC,0XDF,0XA4,0XFF,0X9C,0XFF,0X5B,0X7C,0XCE,0X9F,0XDF,0X5F,0XE7,0X5F,0XE7,0X5F,
1191          0XE7,0X5F,0XE7,0X5F,0XE7,0X5F,0XE7,0X3F,0XE7,0X3F,0XEF,0X5F,0XCE,0X1F,0X83,0XBA,
1192          0X6B,0X18,0X6A,0XB6,0XD6,0X1F,0XCE,0X5F,0XCE,0X5F,0XAD,0X3D,0X94,0X19,0XCE,0X5F,
1193          0XD6,0X5F,0X83,0X97,0XE6,0XDF,0XEF,0X9F,0XEF,0X9F,0XEF,0X9F,0XEF,0X9F,0XEF,0X7F,
1194          0X72,0XF2,0XEF,0X5F,0XE7,0X1E,0XBD,0X19,0XDE,0X9E,0XDE,0X7E,0XF7,0X9F,0XFF,0XDF,
1195          0XFF,0XFF,0XFF,0XDE,0XFF,0XFF,0XFF,0XFF,0XFF,0XFF,0XFF,0XFF,0XFF,0XFF,0XFF,0XFF,
1196          0XCE,0X5E,0XDF,0X1F,0XE7,0X1F,0XE7,0X3F,0XE7,0X3F,0XDE,0XDF,0X8C,0X9B,0XD6,0XBF,
1197          0XE7,0X3F,0XE7,0X3F,0XDF,0X1E,0XBE,0X1F,0X8C,0X9C,0XCE,0XBE,0XC5,0XDD,0XAC,0XBC,
1198          0XA4,0XFE,0X83,0XFB,0X8C,0X9E,0XC6,0X1F,0XCE,0X5F,0XCE,0X3F,0X7B,0X36,0XDE,0XFF,
1199          0XEF,0X7F,0XE7,0X5F,0X83,0X75,0XEF,0X5F,0XEF,0X7F,0XEF,0X7F,0XEF,0X5F,0X94,0X59,
1200          0X7B,0X97,0XBD,0XBD,0XD6,0XFF,0XDF,0X5F,0XDF,0X3F,0XE7,0X3F,0XE7,0X5F,0XE7,0X3F,
1201          0XE7,0X5F,0XE7,0X5F,0XE7,0X5F,0XE7,0X5F,0XE7,0X3F,0XE7,0X5F,0XD6,0XDF,0X7B,0X9C,
1202          0X8C,0X5F,0XA4,0XDF,0X9C,0XDF,0XA4,0XDF,0XA4,0XDF,0X9C,0XDE,0X84,0X1E,0X8C,0X9C,
1203          0XDF,0X1F,0XE7,0X5F,0XE7,0X5F,0XE7,0X5F,0XE7,0X5F,0XE7,0X5F,0XE7,0X3F,0XE7,0X3F,
1204          0XDE,0XBF,0XB5,0X9E,0X6B,0X59,0XAC,0XFF,0X8B,0XB9,0X6A,0X95,0XCE,0X1F,0XCE,0X5F,
1205          0XCE,0X5F,0XBD,0X7E,0X94,0X19,0XCE,0X3E,0XCD,0XFF,0X7B,0X35,0XE7,0X5F,0XEF,0X9F,
1206          0XEF,0X9F,0XEF,0X9F,0XEF,0X9F,0XEF,0X7F,0XC5,0XDC,0XEF,0X9F,0XDE,0X9D,0XB4,0X98,
1207          0XDE,0X9E,0XDE,0X7E,0XF7,0XDF,0XF7,0XFF,0XFF,0XFF,0XFF,0XDE,0XFF,0XFF,0XFF,0XFF,
1208          0XFF,0XFF,0XFF,0XFF,0XFF,0XFF,0XFF,0XFF,0XD6,0XDF,0XDE,0XFF,0XDE,0XFF,0XE7,0X3F,
1209          0XDF,0X3E,0XDE,0XFF,0XD6,0X9F,0XDF,0X1F,0XE7,0X3F,0XDF,0X3F,0XB5,0XDF,0X9C,0XFC,
1210          0XD6,0XFF,0XCE,0XDF,0XB5,0X3E,0X73,0X37,0XBE,0X1F,0XCE,0XDF,0X95,0X1F,0XBD,0XDF,
1211          0XD6,0X5F,0XBD,0X7D,0X9C,0X59,0XE7,0X9F,0XE7,0X9F,0XDF,0X5F,0X93,0XF7,0XEF,0X5F,
1212          0XEF,0X7F,0XEF,0X9F,0XEF,0X9F,0XEF,0X7F,0XBD,0X7C,0X73,0X38,0X73,0XD9,0XBD,0XFE,
1213          0XDF,0X1F,0XE7,0X5F,0XE7,0X5F,0XE7,0X5E,0XE7,0X5F,0XE7,0X5F,0XE7,0X5F,0XE7,0X5F,
1214          0XE7,0X5F,0XE7,0X5F,0XE7,0X5F,0XD6,0X9F,0X8C,0X3C,0X84,0X1D,0XA4,0XDF,0XA4,0XFF,
1215          0XA4,0XFF,0X94,0XBE,0X8C,0X7C,0XDE,0XFF,0XE7,0X3F,0XE7,0X5F,0XE7,0X5F,0XE7,0X5F,
1216          0XEF,0X5F,0XE7,0X5F,0XDF,0X1F,0XBD,0XDE,0X73,0X79,0X94,0X3D,0XB5,0X1F,0X83,0X78,
1217          0X93,0XB8,0X72,0XD6,0XCE,0X1F,0XD6,0X7F,0XCE,0X5F,0XC5,0XBF,0X6B,0X15,0XD6,0X3F,
1218          0XAC,0XBB,0XBD,0XBC,0XEF,0X9F,0XEF,0X9F,0XEF,0X9F,0XEF,0X9F,0XEF,0X9F,0XEF,0X9F,
1219          0XEF,0X7F,0XEF,0X7F,0XCD,0XFB,0XBC,0XF9,0XDE,0X9E,0XD6,0X7E,0XF7,0XDE,0XFF,0XFF,
1220          0XFF,0XFF,0XFF,0XFF,0XFF,0XFF,0XFF,0XFF,0XFF,0XFF,0XFF,0XFF,0XFF,0XFF,0XFF,0XFF,
1221          0XD6,0XFF,0XDE,0XFF,0XDE,0XFF,0XDE,0XFF,0XDE,0XFF,0XDE,0XFF,0XDF,0X1F,0XDF,0X1F,
1222          0XE7,0X3F,0XD6,0XFF,0X8C,0X3B,0X94,0XDD,0X8C,0X7A,0X9C,0XFC,0XC6,0X5F,0XDE,0XFF,
1223          0XD6,0X7F,0XBD,0XDF,0X6B,0X9B,0XC6,0X1F,0XD6,0X5F,0X83,0X57,0XD6,0X5E,0XE7,0X9F,
1224          0XE7,0X9F,0XE7,0X9F,0X9C,0X77,0XE6,0XFE,0XEF,0X9F,0XEF,0X9F,0XEF,0X7F,0XEF,0X9F,
1225          0XEF,0X3F,0XC5,0XFD,0X6B,0X16,0X94,0X3D,0X7B,0XBA,0X9C,0XBB,0XD6,0X9F,0XE7,0X1F,
1226          0XE7,0X3F,0XE7,0X5F,0XE7,0X5F,0XE7,0X5F,0XE7,0X5F,0XE7,0X5F,0XE7,0X5F,0XE7,0X5F,
1227          0XDF,0X3F,0XCE,0X7F,0XCE,0X3F,0XCE,0X5F,0XCE,0X7F,0XD6,0X5F,0XDE,0XFF,0XE7,0X5E,
1228          0XE7,0X1F,0XE7,0X1F,0XDF,0X3F,0XE7,0X5F,0XD6,0X9F,0XAD,0X5D,0X6B,0X78,0X7B,0X7C,
C51 COMPILER V9.60.0.0   LCDDRIVER                                                         05/03/2021 21:31:15 PAGE 21  

1229          0X83,0XBB,0XB4,0XDE,0X6A,0XB5,0X93,0XF8,0XD6,0X3F,0X83,0X58,0XD6,0X5F,0XD6,0X5F,
1230          0XD6,0X7F,0XCE,0X1F,0X7B,0X77,0XD6,0X3F,0X7B,0X76,0XEF,0X5F,0XEF,0X9F,0XEF,0X9F,
1231          0XEF,0X9F,0XEF,0X9F,0XEF,0X9F,0XEF,0X9F,0XEF,0X7F,0XEF,0X9F,0XDE,0X5D,0XC5,0X3A,
1232          0XDE,0X7E,0XD6,0X7E,0XF7,0XFE,0XFF,0XFF,0XFF,0XFF,0XFF,0XFF,0XFF,0XFF,0XFF,0XFF,
1233          0XFF,0XFF,0XFF,0XFF,0XFF,0XFF,0XFF,0XFF,0XDE,0XDF,0XDE,0XDF,0XDE,0XDF,0XDE,0XDF,
1234          0XD6,0XDF,0XDE,0XDF,0XDE,0XFF,0XDE,0XFF,0XDE,0XFF,0XDE,0XFF,0XDE,0XFF,0XDE,0XDF,
1235          0XDE,0XFF,0XDF,0X1F,0XD6,0X7F,0XC6,0X1F,0XBD,0XDF,0X7C,0X1D,0X9C,0XDE,0XCE,0X3F,
1236          0XCD,0XFF,0X62,0X93,0XE7,0X5F,0XEF,0X9F,0XE7,0X9F,0XEF,0X7F,0XB5,0X39,0XC5,0XBC,
1237          0XEF,0XBF,0XEF,0X9F,0XEF,0X9F,0XEF,0XBF,0XEF,0X9F,0XEF,0X7F,0XE7,0X1F,0X7B,0X76,
1238          0X8B,0XBA,0XB5,0X1E,0X83,0XDA,0X83,0XFA,0XBD,0X9E,0XD6,0XDF,0XDF,0X3F,0XE7,0X5F,
1239          0XE7,0X7F,0XE7,0X5F,0XE7,0X5F,0XE7,0X5F,0XE7,0X5F,0XE7,0X5F,0XE7,0X5F,0XE7,0X5F,
1240          0XE7,0X3F,0XE7,0X3F,0XE7,0X5F,0XE7,0X5F,0XDF,0X3E,0XDE,0XFF,0XC6,0X1F,0X8C,0X9C,
1241          0X7B,0XDB,0X7B,0X9B,0X9C,0X9D,0XAC,0XFD,0XA4,0X3C,0X83,0X56,0XCD,0XFD,0XE7,0X5E,
1242          0XC5,0XBC,0X83,0X57,0XD6,0X5F,0XCE,0X5F,0XCE,0X5F,0XCE,0X1F,0X7B,0X57,0XB5,0X3D,
1243          0XC5,0XFD,0XEF,0X9F,0XEF,0X7F,0XEF,0X9F,0XEF,0X9F,0XEF,0X9F,0XEF,0X9F,0XEF,0X9F,
1244          0XEF,0X7F,0XEF,0X9F,0XC5,0X9A,0XCD,0XBB,0XD6,0X7D,0XDE,0X7E,0XEF,0XDE,0XFF,0XFF,
1245          0XFF,0XFF,0XFF,0XFF,0XFF,0XFF,0XFF,0XFF,0XFF,0XFF,0XFF,0XFF,0XFF,0XFF,0XFF,0XFF,
1246          0XD6,0XDF,0XDE,0XBF,0XDE,0XBF,0XD6,0X5E,0XCE,0X1E,0XD6,0X5E,0XDE,0XDF,0XD6,0XFF,
1247          0XDE,0XFF,0XDF,0X1F,0XDE,0XFF,0XDF,0X1F,0XCE,0X7E,0XC6,0X1F,0XC5,0XDF,0XB5,0X9F,
1248          0X84,0X3D,0X94,0XBE,0XC5,0XFF,0XCE,0X3F,0X83,0XD8,0X8B,0XD7,0XEF,0X7F,0XE7,0X9F,
1249          0XE7,0X9F,0XE7,0X7F,0XDF,0X1F,0X8B,0XF8,0XE7,0X5F,0XEF,0X9F,0XEF,0X9F,0XEF,0X9F,
1250          0XEF,0X9F,0XEF,0X7F,0XEF,0X9F,0XEF,0X7F,0XD6,0X1E,0X6A,0XD4,0X83,0X98,0XBD,0X3F,
1251          0XA4,0X9D,0X84,0X1B,0X73,0XD9,0XAD,0X7D,0XCE,0X9F,0XDF,0X1F,0XE7,0X5F,0XE7,0X5F,
1252          0XE7,0X5F,0XE7,0X5F,0XE7,0X5F,0XE7,0X5F,0XE7,0X5F,0XE7,0X5E,0XDF,0X1F,0XCE,0XDF,
1253          0XB5,0XDF,0X84,0X1C,0X73,0XDB,0X9C,0XDE,0XBD,0X7F,0XAC,0X7B,0X83,0X77,0X93,0XD7,
1254          0XD5,0XFE,0XEF,0X3F,0XEF,0X7F,0XEF,0X7F,0XC5,0XBD,0XB4,0XFD,0XD6,0X5F,0XD6,0X3F,
1255          0XD6,0X5F,0XCE,0X3F,0X72,0XF5,0XAC,0XFC,0XE7,0X3F,0XEF,0X9F,0XEF,0X9F,0XEF,0X9F,
1256          0XEF,0X9F,0XEF,0X9F,0XEF,0X7F,0XEF,0X7F,0XEF,0X7F,0XF7,0X9F,0XB5,0X19,0XCD,0XBC,
1257          0XD6,0X7E,0XD6,0X9E,0XF7,0XDF,0XFF,0XFF,0XFF,0XFF,0XFF,0XFF,0XFF,0XFF,0XFF,0XFF,
1258          0XFF,0XFF,0XFF,0XFF,0XFF,0XFF,0XFF,0XFF,0XC5,0XDC,0XB4,0XF9,0XB4,0XD8,0XBD,0X59,
1259          0XCD,0XBA,0XAC,0XB7,0XAC,0X97,0XC5,0XDB,0XDE,0XDF,0XDE,0XDF,0XCE,0X7F,0XC5,0XBF,
1260          0XB5,0X9F,0XAD,0X3E,0X94,0X7D,0X83,0XFD,0XAD,0X7F,0XC6,0X3F,0XCE,0X5F,0XC5,0XFF,
1261          0X52,0X12,0XAD,0X1B,0XEF,0X7F,0XE7,0X9F,0XE7,0X7F,0XE7,0X7E,0XE7,0X5F,0XBD,0X9C,
1262          0X9C,0X58,0XEF,0X7F,0XEF,0X9F,0XEF,0XBF,0XEF,0X9F,0XEF,0X9F,0XEF,0X9F,0XEF,0X9F,
1263          0XE7,0X9E,0XE7,0X5F,0XC5,0XFC,0X8B,0XD8,0X7B,0X16,0X83,0X98,0X8B,0XFB,0X73,0X7A,
1264          0X5B,0X1A,0X7C,0X3D,0X9C,0XFD,0XBE,0X3F,0XD6,0XDF,0XDF,0X3F,0XE7,0X3F,0XDE,0XFF,
1265          0XD6,0XFF,0XB5,0XFE,0X84,0X7D,0X6C,0X1D,0X6B,0XDB,0XBD,0XDF,0XA5,0X3E,0XB5,0XFF,
1266          0XCE,0X3E,0XDE,0XBF,0XE7,0X3F,0XEF,0X5F,0XEF,0X5E,0XEF,0X7F,0XEF,0X9F,0XEF,0X7F,
1267          0XAC,0XFA,0X9C,0X5A,0XD6,0X3F,0XD6,0X3F,0XD6,0X3F,0XD6,0X1F,0X7B,0X57,0XDE,0X7F,
1268          0XEF,0X7E,0XEF,0X9F,0XEF,0X9F,0XEF,0X9F,0XEF,0X9F,0XEF,0X9F,0XEF,0X7F,0XEF,0X9F,
1269          0XEF,0X9F,0XDE,0XDF,0XAC,0X9A,0XD5,0XFD,0XD6,0X9E,0XDE,0X9E,0XF7,0XDF,0XFF,0XDF,
1270          0XFF,0XFF,0XFF,0XFF,0XFF,0XFF,0XFF,0XFF,0XFF,0XFF,0XFF,0XFF,0XFF,0XFF,0XFF,0XFF,
1271          0XEE,0XFE,0XF7,0XBF,0XF7,0XDE,0XFF,0XDF,0XF7,0XDF,0XFF,0XDF,0XF7,0X7E,0XBD,0X59,
1272          0XBD,0X5A,0XC6,0X1E,0XB5,0XBE,0X9C,0X9E,0XA5,0X1D,0XB5,0X9D,0XCE,0X9F,0X9C,0X7B,
1273          0XCE,0X5F,0XCE,0X5F,0XCE,0X5F,0X83,0X97,0XB5,0X3D,0XAD,0X1B,0XE7,0X9F,0XE7,0X9F,
1274          0XEF,0X9F,0XEF,0X9F,0XEF,0X9F,0XEF,0X5F,0X8B,0XF6,0XAC,0XFA,0XE7,0X7E,0XEF,0X9F,
1275          0XEF,0X9F,0XEF,0X9F,0XEF,0X9F,0XEF,0X9F,0XEF,0X9F,0XEF,0X9F,0XEF,0X9F,0XEF,0X7F,
1276          0XEF,0X5F,0XD6,0X7D,0XDE,0X7E,0XDE,0XFF,0X63,0XBD,0X53,0X3E,0X5B,0X3E,0X63,0X7F,
1277          0X63,0X3C,0X63,0X3C,0X73,0X9C,0X63,0X7C,0X5B,0X3C,0X5B,0X3D,0X73,0XDD,0XA5,0X3F,
1278          0XC5,0XFF,0XC5,0XFF,0X94,0XDD,0XC6,0X9F,0XEF,0X7F,0XE7,0X7F,0XEF,0X7F,0XEF,0X5F,
1279          0XEF,0X5F,0XEF,0X7F,0XEF,0X9F,0XEF,0X9F,0XB5,0X3B,0XAC,0X9C,0XD6,0X5F,0XD6,0X5F,
1280          0XD6,0X5F,0XD6,0X3F,0X9C,0X5A,0XCD,0XFD,0XE7,0X5F,0XEF,0X9F,0XEF,0X9F,0XEF,0X9F,
1281          0XEF,0X9F,0XEF,0X9F,0XEF,0X9F,0XEF,0X9F,0XEF,0X7F,0XBD,0XBE,0XAC,0X79,0XD5,0XFD,
1282          0XD6,0X9F,0XDE,0XDE,0XF7,0XDE,0XF7,0XFF,0XFF,0XFF,0XFF,0XFF,0XFF,0XFF,0XFF,0XFF,
1283          0XFF,0XFF,0XFF,0XFF,0XFF,0XFF,0XFF,0XFF,0XFF,0XFF,0XFF,0XFF,0XFF,0XDE,0XFF,0XDE,
1284          0XFF,0XFF,0XFF,0XDE,0XFF,0XFF,0XF7,0XBE,0XBC,0XF8,0XB4,0XDB,0X84,0X9C,0XB5,0XBE,
1285          0XE7,0X5F,0XE7,0X5F,0XE7,0X3F,0X93,0XF9,0XCE,0X3F,0XCE,0X5F,0XC5,0XFF,0X73,0X36,
1286          0XC5,0XDF,0XA4,0XDA,0XE7,0X7F,0XE7,0X9F,0XEF,0X9F,0XEF,0X9F,0XEF,0X7F,0XEF,0X5F,
1287          0XE7,0X5F,0XC5,0XDC,0XDE,0XBE,0XEF,0X9F,0XEF,0X9F,0XEF,0X9F,0XEF,0X9F,0XEF,0XBF,
1288          0XEF,0X9F,0XEF,0X9F,0XE7,0X9F,0XE7,0X7F,0XEF,0X9F,0XDE,0XDD,0XD6,0X3C,0XD6,0X3C,
1289          0XAD,0X1E,0X63,0X1D,0X5B,0X1E,0X63,0X1E,0X5A,0XFF,0X5A,0XFE,0X5A,0XDE,0X5A,0XFD,
1290          0X6B,0X9D,0X9C,0XDE,0XC6,0X1F,0XC5,0XFF,0XC5,0XFF,0XC5,0XFF,0X9C,0XBE,0XC6,0X5F,
C51 COMPILER V9.60.0.0   LCDDRIVER                                                         05/03/2021 21:31:15 PAGE 22  

1291          0XE7,0X7F,0XE7,0X9F,0XDE,0XDF,0XBD,0XBD,0XBD,0X5D,0XBD,0X5C,0XDE,0XDF,0XEF,0X9F,
1292          0XAD,0X1A,0XBD,0X3D,0XD6,0X3F,0XD6,0X3F,0XD6,0X5F,0XD6,0X5F,0XCD,0XBF,0X93,0XF8,
1293          0XEF,0X5F,0XEF,0XBF,0XEF,0X9F,0XEF,0X9F,0XEF,0X9F,0XEF,0X7F,0XEF,0X9F,0XEF,0X9F,
1294          0XCD,0XFD,0XBD,0X9E,0XAC,0X78,0XDE,0X1D,0XDE,0X7F,0XDE,0XBE,0XF7,0XFF,0XFF,0XFE,
1295          0XFF,0XFF,0XFF,0XFF,0XFF,0XFF,0XFF,0XFF,0XFF,0XFF,0XFF,0XFF,0XFF,0XFF,0XFF,0XFF,
1296          0XFF,0XFF,0XFF,0XFF,0XFF,0XFF,0XFF,0XFF,0XFF,0XFF,0XFF,0XFF,0XFF,0XFF,0XFF,0XDF,
1297          0XFF,0X7E,0XA4,0XB7,0X84,0X39,0XE7,0X3F,0XE7,0X5E,0XEF,0X9E,0XEF,0X7F,0X8B,0XB7,
1298          0XCE,0X3F,0XCE,0X5F,0X9C,0X7A,0XBD,0X9E,0XC5,0X9E,0XA4,0XFB,0XE7,0X7F,0XE7,0X7F,
1299          0XEF,0X9F,0XEF,0X9F,0XEF,0X7F,0XEF,0X7F,0XEF,0X9F,0XEF,0X5F,0XE6,0XFF,0XE7,0X1F,
1300          0XE7,0X3F,0XEF,0X5F,0XEF,0X7F,0XEF,0X7F,0XEF,0X9F,0XEF,0X7F,0XE7,0X9F,0XE7,0X7F,
1301          0XCD,0XDB,0XBC,0XF9,0XCD,0X9B,0XCD,0X7B,0XB4,0XDC,0X63,0X5E,0X63,0X5E,0X63,0X5E,
1302          0X5B,0X1E,0X5A,0XFE,0X5B,0X1C,0X9C,0XFF,0XB5,0XBF,0XBD,0XFF,0XC6,0X1F,0XC6,0X1F,
1303          0XC5,0XFF,0XC5,0XFF,0X94,0X9D,0XBD,0XBE,0XEF,0X1F,0XDE,0X7E,0XBD,0X5C,0XCD,0XFF,
1304          0XCE,0X1F,0XCE,0X1F,0XAC,0XFD,0XD6,0X7E,0XAD,0X1A,0XC5,0XDE,0XD6,0X5F,0XD6,0X7F,
1305          0XD6,0X7F,0XD6,0X5F,0XD6,0X1F,0X62,0X33,0XE7,0X3F,0XEF,0XBF,0XEF,0X9F,0XEF,0X9F,
1306          0XEF,0X9F,0XEF,0X9F,0XEF,0X9F,0XDE,0XFF,0XAC,0XFC,0XCE,0X3F,0XA4,0X97,0XDE,0X3D,
1307          0XDE,0X7E,0XDE,0XBE,0XF7,0XFF,0XFF,0XDE,0XFF,0XDE,0XFF,0XFF,0XFF,0XFF,0XFF,0XFF,
1308          0XFF,0XFF,0XFF,0XFF,0XFF,0XFF,0XFF,0XDF,0XFF,0XFE,0XFF,0XFF,0XFF,0XFF,0XFF,0XFF,
1309          0XFF,0XFF,0XFF,0XFF,0XFF,0XFF,0XFF,0XFF,0XFF,0XDF,0XDE,0X9C,0XB5,0X18,0XEF,0X7F,
1310          0XEF,0X7F,0XEF,0X7F,0XEF,0X9F,0XB5,0X3B,0XBD,0X7D,0XD6,0X5F,0XBD,0X5D,0XCE,0X1F,
1311          0XC5,0X9E,0XAD,0X1B,0XEF,0X9F,0XEF,0X9F,0XEF,0X9F,0XEF,0X7F,0XE7,0X3F,0XCE,0X1D,
1312          0XB5,0X3B,0XAD,0X1C,0XB5,0X3C,0XAC,0XFC,0XA4,0XBB,0XA4,0XDC,0XA4,0XDA,0XBD,0XBD,
1313          0XDE,0XDF,0XEF,0X7F,0XEF,0X5F,0XC5,0X5A,0XC5,0X39,0XDE,0X7E,0XDE,0X7E,0XDE,0X9E,
1314          0XBD,0XFF,0X6B,0X9D,0X63,0X7E,0X5B,0X1E,0X63,0X3D,0X94,0X9E,0XBD,0XDF,0XC5,0XFF,
1315          0XC5,0XFF,0XC5,0XFF,0XC6,0X1F,0XC5,0XFF,0XC6,0X1F,0XC5,0XFF,0X9C,0XBE,0XB5,0X3F,
1316          0XBC,0XD9,0XBC,0XD9,0XAC,0X77,0XB4,0X97,0XC5,0X3A,0XBD,0X39,0XD5,0XFF,0XAC,0XBC,
1317          0XA4,0X9C,0XAC,0XDC,0XD6,0X5F,0XCE,0X5F,0XD6,0X7F,0XD6,0X7F,0XD6,0X5F,0X73,0X15,
1318          0XD6,0X9E,0XEF,0X9F,0XEF,0X9F,0XEF,0X7F,0XEF,0X7F,0XE7,0X7F,0XE7,0X5F,0XAD,0X3C,
1319          0XC5,0XFF,0XCE,0X7F,0XAC,0X97,0XD5,0XFD,0XE6,0X7F,0XDE,0X9E,0XF7,0XDF,0XFF,0XFF,
1320          0XFF,0XFF,0XFF,0XFF,0XFF,0XFF,0XFF,0XFF,0XFF,0XFF,0XFF,0XFF,0XFF,0XFF,0XFF,0XBF,
1321          0XFF,0XFE,0XFF,0XFF,0XFF,0XFF,0XFF,0XFF,0XFF,0XFF,0XFF,0XFF,0XFF,0XFF,0XFF,0XFF,
1322          0XFF,0XFF,0XFF,0XDF,0XAC,0X96,0XE6,0XDE,0XEF,0X7F,0XEF,0X9F,0XEF,0X9F,0XD6,0X5E,
1323          0XA4,0X7A,0XCD,0XDE,0XCE,0X3F,0XCE,0X3F,0XC5,0XBF,0XA4,0XDA,0XE7,0X5F,0XEF,0X9F,
1324          0XEF,0X7F,0XC5,0XDD,0XAC,0XFB,0XC5,0XFE,0XDF,0X3F,0XE7,0X9F,0XE7,0X7F,0XEF,0X9F,
1325          0XEF,0X9F,0XE7,0X7F,0XD6,0XDF,0XBD,0XBE,0XAD,0X1C,0XB5,0X3B,0XB4,0XB8,0XCD,0X9B,
1326          0XDE,0X5E,0XDE,0X7E,0XDE,0X7E,0XDE,0X9F,0XCE,0X1F,0X73,0XBD,0X6B,0X9D,0X8C,0XBE,
1327          0XB5,0XBF,0XC5,0XFF,0XC5,0XFF,0XC5,0XFF,0XC5,0XFF,0XC5,0XFF,0XC6,0X1F,0XC5,0XFF,
1328          0XC5,0XFF,0XC5,0XFF,0XAD,0X1E,0XA4,0XBB,0XBC,0XD8,0XBD,0X19,0XDE,0X7D,0XDE,0X7E,
1329          0XDE,0X5E,0XCD,0X7B,0XC5,0X5C,0XCE,0X5F,0XB5,0X7C,0X9C,0X5A,0XD6,0X5F,0XD6,0X5F,
1330          0XD6,0X5F,0XD6,0X5F,0XD6,0X5F,0XAC,0XFB,0XAD,0X1B,0XEF,0X9F,0XEF,0X7F,0XE7,0X7E,
1331          0XEF,0X9F,0XEF,0X9F,0XD6,0X9F,0XB5,0X7C,0XD6,0XBF,0XCE,0X7F,0XAC,0XB8,0XD5,0XDC,
1332          0XDE,0X7F,0XDE,0X9E,0XF7,0XBF,0XFF,0XFF,0XFF,0XFF,0XFF,0XFF,0XFF,0XFF,0XFF,0XFF,
1333          0XFF,0XFF,0XFF,0XFF,0XFF,0XBF,0XBD,0X37,0XFF,0XFE,0XFF,0XFF,0XFF,0XFF,0XFF,0XFF,
1334          0XFF,0XFF,0XFF,0XFF,0XFF,0XFF,0XFF,0XFF,0XFF,0XFF,0XF7,0XDF,0XEF,0X1E,0XB4,0XB7,
1335          0XEF,0X7F,0XEF,0X9F,0XEF,0X9F,0XE7,0X3F,0X7B,0X16,0XA4,0X9C,0XCE,0X1F,0XCE,0X3F,
1336          0XC5,0XBF,0X8C,0X18,0XE7,0X5F,0XDE,0XFF,0XB5,0X1C,0XBD,0X9C,0XEF,0X9F,0XEF,0XBE,
1337          0XEF,0XBF,0XEF,0XBF,0XEF,0XDF,0XEF,0XBF,0XEF,0XBF,0XEF,0XBF,0XEF,0XDF,0XD6,0XDF,
1338          0XD6,0X3F,0XB4,0XD9,0XCD,0XBB,0XDE,0X7E,0XD6,0X7E,0XDE,0X7E,0XDE,0X7E,0XBD,0X9B,
1339          0XBD,0X1B,0X8C,0X1A,0XBD,0XFF,0XC5,0XDF,0XC5,0XFF,0XC6,0X1F,0XC5,0XFF,0XC5,0XFF,
1340          0XC5,0XFF,0XC5,0XFF,0XC6,0X1F,0XCE,0X1F,0XC6,0X1F,0XCD,0XFF,0XB4,0XBB,0XAC,0X59,
1341          0XD5,0XFD,0XDE,0X7F,0XDE,0X7E,0XDE,0X7E,0XDE,0X7E,0XD5,0XDC,0XBD,0X5A,0XDF,0X3F,
1342          0XCE,0X7F,0X94,0X1A,0XCE,0X3F,0XD6,0X5F,0XD6,0X5F,0XD6,0X5F,0XCE,0X3F,0XC5,0XFE,
1343          0X73,0X35,0XD6,0XDF,0XC6,0X3D,0XCE,0X5E,0XDF,0X1F,0XE7,0X7F,0XAD,0X1C,0XE7,0X1F,
1344          0XE7,0X7F,0XCE,0X7F,0XC5,0X7B,0XC5,0X7B,0XDE,0X5E,0XDE,0X7F,0XEF,0X9E,0XFF,0XFF,
1345          0XFF,0XFF,0XFF,0XFF,0XFF,0XFF,0XFF,0XFF,0XFF,0XFF,0XFF,0XFF,0XDE,0X9C,0XB4,0XF7,
1346          0XFF,0XFE,0XFF,0XFF,0XFF,0XDE,0XFF,0XDF,0XFF,0XBF,0XFF,0XBF,0XFF,0XDF,0XFF,0XFE,
1347          0XFF,0XFF,0XFF,0XFF,0XE6,0XFE,0XB4,0X77,0XEE,0XFF,0XEF,0X7E,0XEF,0X9F,0XE7,0X7F,
1348          0X8B,0XF7,0X93,0XF9,0XCE,0X3F,0XCE,0X3F,0XCD,0XFF,0X7B,0X76,0XCE,0X3E,0XA4,0XBC,
1349          0XDE,0XDF,0XF7,0XDF,0XEF,0XFE,0XEF,0XDF,0XEF,0XBF,0XEF,0XBF,0XE7,0XDF,0XE7,0XDF,
1350          0XE7,0XDF,0XEF,0XDF,0XEF,0XDF,0XEF,0X9F,0XB4,0XF8,0XC5,0X9B,0XD6,0X5E,0XD6,0X9E,
1351          0XDE,0X7E,0XDE,0X7E,0XE6,0X7E,0XDE,0X5E,0XC5,0X9B,0XAC,0XB8,0XBD,0X7C,0XCD,0XFF,
1352          0XCE,0X1F,0XC6,0X1F,0XC6,0X1F,0XC6,0X1F,0XCE,0X1F,0XC5,0XFF,0XC5,0XFF,0XCD,0XFF,
C51 COMPILER V9.60.0.0   LCDDRIVER                                                         05/03/2021 21:31:15 PAGE 23  

1353          0XBD,0X3B,0XB4,0X99,0XCD,0X9C,0XDE,0X5E,0XD6,0X9F,0XDE,0X9E,0XDE,0X7E,0XDE,0X7E,
1354          0XDE,0X7E,0XDE,0X5D,0XC5,0X7A,0XEF,0XBF,0XDE,0XFE,0X83,0X57,0XD6,0X3F,0XD6,0X5F,
1355          0XD6,0X5F,0XD6,0X5F,0XCE,0X5F,0XD6,0X3F,0X72,0XF6,0XBD,0X7E,0XCE,0X7E,0XC5,0XFE,
1356          0XB5,0X3C,0XCD,0XFE,0XBD,0XBD,0XEF,0XBF,0XEF,0XBF,0XD7,0X1F,0XCE,0X5D,0XA4,0X56,
1357          0XD6,0X7E,0XDE,0X9E,0XE6,0XFD,0XF7,0XFF,0XFF,0XFF,0XFF,0XFF,0XFF,0XFF,0XFF,0XFF,
1358          0XF7,0XDF,0XE6,0XDD,0XB4,0XF7,0XF7,0X9F,0XFF,0XFE,0XFF,0XFE,0XF7,0X7F,0XC5,0XDA,
1359          0XC5,0X9A,0XC5,0XBA,0XDE,0XBD,0XFF,0XDE,0XFF,0XDF,0XFF,0XBF,0XD6,0X9E,0XCD,0X9B,
1360          0XAC,0XB7,0XEF,0X5F,0XEF,0X7F,0XE7,0X5F,0XD6,0X9E,0X94,0X1A,0XD6,0X3F,0XCE,0X3F,
1361          0XCE,0X1F,0X83,0X98,0XB5,0X7C,0XE7,0X3F,0XEF,0XBF,0XF7,0XDF,0XF7,0XDF,0XF7,0XFF,
1362          0XEF,0XBF,0XEF,0XDF,0XEF,0XDF,0XEF,0XDF,0XEF,0XDF,0XEF,0XFF,0XEF,0XDF,0XD6,0XFD,
1363          0XBD,0X19,0XD6,0X9E,0XDE,0X5E,0XDE,0X7F,0XE6,0X9F,0XE6,0X7F,0XE6,0X7E,0XDE,0X7E,
1364          0XDE,0X9E,0XDE,0X5E,0XC5,0X7B,0XBC,0XFA,0XCD,0XBD,0XCD,0XFF,0XC5,0XFF,0XC5,0XFF,
1365          0XC6,0X1F,0XBD,0XFF,0XCD,0XDD,0XAC,0X98,0XBC,0XF9,0XDE,0X5E,0XDE,0X7E,0XDE,0X9F,
1366          0XDE,0X9F,0XDE,0X9F,0XDE,0X9E,0XDE,0X7E,0XDE,0X7E,0XDE,0X7D,0XC5,0X7A,0XEF,0XBF,
1367          0XE7,0X7F,0X62,0X73,0XD6,0X3F,0XD6,0X5F,0XD6,0X5F,0XD6,0X3F,0XD6,0X5F,0XD6,0X5F,
1368          0XAC,0XBB,0XA4,0XBA,0XEF,0XBF,0XEF,0XBF,0XE7,0X5F,0XB5,0X5C,0XDF,0X1F,0XEF,0XBF,
1369          0XEF,0XBF,0XE7,0XBF,0XCE,0XBE,0XA4,0X76,0XCD,0XDC,0XD6,0X9E,0XDE,0XBD,0XF7,0XDF,
1370          0XFF,0XFF,0XFF,0XFF,0XFF,0XFF,0XFF,0XDF,0XDE,0X3B,0XB4,0XF7,0XF7,0XBF,0XEF,0XFF,
1371          0XFF,0XFE,0XFF,0XDF,0XCD,0XB9,0XDE,0X5D,0XDE,0X5E,0XE6,0X9E,0XDE,0X7D,0XF7,0XDE,
1372          0XFF,0XDF,0XEF,0X1E,0XD6,0X9E,0XD5,0XDC,0XDE,0X9E,0XEF,0X7F,0XEF,0X7F,0XBD,0X7C,
1373          0XE7,0X1F,0X83,0X77,0XD6,0X5F,0XCE,0X5F,0XD6,0X3F,0X73,0X15,0XE7,0X7F,0XEF,0XBF,
1374          0XF7,0XDF,0XF7,0XDF,0XEF,0XBF,0XEF,0XDF,0XEF,0XDF,0XEF,0XDF,0XEF,0XDF,0XEF,0XDF,
1375          0XEF,0XDF,0XEF,0XDF,0XEF,0X9F,0XB4,0XF7,0XF7,0X7F,0XE7,0X1E,0XDE,0X7E,0XDE,0X5E,
1376          0XE6,0X9F,0XE6,0X7F,0XE6,0X7F,0XDE,0X9F,0XD6,0XBE,0XD6,0X9F,0XD6,0X9E,0XD6,0X5D,
1377          0XBD,0X1A,0XBC,0XDA,0XC5,0X9D,0XCE,0X1F,0XCE,0X1F,0XBD,0X1B,0XB4,0XB9,0XD6,0X1D,
1378          0XDE,0X7E,0XD6,0X7E,0XD6,0X7E,0XD6,0X7E,0XDE,0X9F,0XDE,0X9F,0XDE,0X7E,0XE6,0X7F,
1379          0XDE,0X9E,0XF7,0X7F,0XB4,0XB7,0XEF,0XBF,0XE7,0X9F,0X7B,0X35,0XCD,0XFF,0XD6,0X3F,
1380          0XD6,0X5F,0XD6,0X3F,0XD6,0X5F,0XD6,0X5F,0XD6,0X1F,0X8B,0XF7,0XE7,0X5F,0XEF,0XDF,
1381          0XE7,0X9F,0XAD,0X1B,0XE7,0X7F,0XEF,0XBF,0XEF,0XBF,0XEF,0XDF,0XE7,0X9F,0XD6,0X5D,
1382          0XA4,0X56,0XDE,0X5D,0XDE,0XBD,0XFF,0XFF,0XF7,0XFF,0XFF,0XFF,0XF7,0X5E,0XB4,0XD6,
1383          0XAC,0XB6,0XEF,0XBF,0XEF,0XDF,0XEF,0XDF,0XFF,0XFF,0XF7,0X9E,0XCD,0XBB,0XDE,0X5E,
1384          0XDE,0X5E,0XDE,0X7F,0XD6,0X1D,0XE7,0X3D,0XF7,0X9F,0XDE,0X9E,0XDE,0X7E,0XBD,0X1A,
1385          0XEF,0X7F,0XEF,0X7F,0XDE,0X9F,0XA4,0X1B,0XCE,0X1F,0X93,0XF9,0XD6,0X3F,0XD6,0X5F,
1386          0XD6,0X3F,0X73,0X14,0XEF,0X7F,0XEF,0XBF,0XEF,0XBF,0XEF,0XBF,0XEF,0XBF,0XEF,0XBF,
1387          0XEF,0XBF,0XEF,0XBF,0XEF,0XBF,0XEF,0XDF,0XEF,0XBF,0XEF,0XBF,0XCD,0XDA,0XDE,0X7C,
1388          0XF7,0XDF,0XF7,0XDF,0XE6,0XFE,0XDE,0X7E,0XE6,0X7F,0XE6,0X7F,0XE6,0X7F,0XD6,0X7E,
1389          0XDE,0X7E,0XDE,0X7E,0XDE,0X5D,0XD5,0XFD,0XE6,0X7E,0XD5,0XDC,0XBD,0X19,0XB4,0XD9,
1390          0XB4,0XF9,0XC5,0X7B,0XDE,0X5E,0XD6,0X7E,0XDE,0X9F,0XD6,0X7E,0XDE,0X9F,0XD6,0X7E,
1391          0XDE,0X9F,0XDE,0X9F,0XDE,0X7E,0XE6,0X9E,0XF7,0X7F,0XF7,0XDF,0XB4,0XD6,0XEF,0X9F,
1392          0XE7,0XBF,0XA4,0XB9,0XA4,0X9B,0XD6,0X5F,0XD6,0X3F,0XC5,0X7E,0XD6,0X5F,0XD6,0X5F,
1393          0XD6,0X3F,0X9C,0X7A,0XA4,0XFA,0XEF,0XBF,0XD6,0XBE,0XCE,0X3E,0XEF,0XDF,0XEF,0XDF,
1394          0XEF,0XBF,0XEF,0XBF,0XEF,0XDF,0XEF,0XDF,0XE6,0XBE,0XAC,0X77,0XBD,0X18,0XD5,0XFA,
1395          0XD5,0XFB,0XC5,0X38,0XB4,0X96,0XD6,0X5B,0XF7,0XBF,0XEF,0XDF,0XEF,0XFF,0XEF,0XDF,
1396          0XFF,0XFE,0XFF,0XDF,0XD6,0X1B,0XBC,0XF9,0XD5,0XDD,0XE6,0X7E,0XC5,0X7B,0XDE,0X9D,
1397          0XEF,0X1F,0XDE,0X7D,0XCD,0XFC,0XBD,0X39,0XEF,0X9F,0XE7,0X5E,0XBD,0X7D,0XA4,0X9C,
1398          0XAC,0XDD,0X8B,0XB8,0XD6,0X5F,0XD6,0X5F,0XD6,0X5F,0X6A,0XF4,0XDF,0X1F,0XEF,0XBF,
1399          0XEF,0XBF,0XEF,0XBF,0XEF,0XBF,0XEF,0XBF,0XEF,0XBF,0XEF,0XBF,0XEF,0XDF,0XEF,0XDF,
1400          0XE7,0XDF,0XEF,0X5F,0XBD,0X18,0XFF,0XBF,0XFF,0XDF,0XFF,0XFF,0XF7,0XDF,0XDE,0XFE,
1401          0XDE,0X9E,0XD6,0X9E,0XD6,0X9E,0XDE,0X7E,0XD5,0XDC,0XB4,0XD8,0XBC,0XF9,0XBC,0XF9,
1402          0XB4,0XD8,0XDE,0X3D,0XDE,0X9E,0XDE,0X5E,0XDE,0X5E,0XDE,0X5E,0XD6,0X1D,0XD6,0X7E,
1403          0XD6,0X7E,0XD6,0X7E,0XD6,0X7E,0XDE,0X7E,0XDE,0X9E,0XDE,0X7E,0XDE,0X9E,0XEF,0X3F,
1404          0XFF,0XBF,0XFF,0XFF,0XBD,0X38,0XEF,0X7F,0XEF,0XFF,0XD6,0XDE,0X6A,0XD4,0XD6,0X5F,
1405          0XD6,0X3F,0XB5,0X1C,0XD6,0X1F,0XD6,0X3F,0XD6,0X5F,0XCD,0XFF,0X62,0XB3,0XEF,0X5F,
1406          0XC5,0XFD,0XDE,0XDE,0XEF,0XDF,0XEF,0XDF,0XEF,0XDF,0XEF,0XDF,0XEF,0XDF,0XEF,0XBF,
1407          0XEF,0XBF,0XEF,0X9F,0XE6,0XFE,0XDE,0XBD,0XDE,0XDD,0XEF,0X5E,0XF7,0XDF,0XF7,0XDF,
1408          0XEF,0XDF,0XEF,0XDF,0XEF,0XDF,0XEF,0XDF,0XFF,0XFE,0XFF,0XFE,0XF7,0X9F,0XE6,0XDE,
1409          0XBD,0X79,0XC5,0X9B,0XD5,0XFC,0XDE,0X9E,0XDE,0X9E,0XDE,0X7D,0XAC,0XB7,0XEF,0X3F,
1410          0XEF,0X9F,0XE7,0X7F,0XAC,0X9C,0X9C,0X1B,0XAC,0XBD,0X83,0X98,0XD6,0X1F,0XD6,0X5F,
1411          0XD6,0X5F,0X9C,0X3A,0XBD,0XBC,0XEF,0XBF,0XEF,0XBF,0XEF,0XBF,0XEF,0XBF,0XEF,0XBF,
1412          0XEF,0XBF,0XEF,0XBF,0XEF,0XBF,0XEF,0XDF,0XEF,0XBF,0XBD,0X79,0XEF,0X3E,0XFF,0XDF,
1413          0XFF,0XFF,0XFF,0XDE,0XFF,0XFE,0XF7,0XDF,0XE7,0X1E,0XDE,0X7E,0XD5,0XDC,0XB4,0XD8,
1414          0XC5,0X3A,0XDE,0X3D,0XBD,0X19,0XB4,0X56,0XB4,0X97,0XCD,0XDC,0XDE,0X9E,0XDE,0X9D,
C51 COMPILER V9.60.0.0   LCDDRIVER                                                         05/03/2021 21:31:15 PAGE 24  

1415          0XD5,0XBB,0XB4,0XB8,0XB4,0X97,0XD6,0X3D,0XD6,0X7E,0XD6,0X7E,0XDE,0X9F,0XDE,0X9E,
1416          0XDE,0X7E,0XDE,0X7E,0XEF,0X3E,0XFF,0XDF,0XFF,0XFF,0XFF,0XDF,0XC5,0X59,0XE6,0XFE,
1417          0XEF,0XDF,0XEF,0XBF,0X6A,0XF4,0XCD,0XDF,0XD6,0X3F,0XB4,0XFC,0XC5,0XDE,0XD6,0X3F,
1418          0XD6,0X3F,0XD6,0X3F,0XA4,0X7A,0XB5,0X3B,0XBD,0X7D,0XE7,0X5F,0XEF,0XBF,0XEF,0XDF,
1419          0XEF,0XBF,0XEF,0XBF,0XEF,0XBF,0XEF,0XBF,0XEF,0XBF,0XEF,0XDF,0XEF,0XDF,0XEF,0XDF,
1420          0XEF,0XDF,0XEF,0XBF,0XEF,0XDF,0XEF,0XDF,0XEF,0XDF,0XEF,0XDF,0XF7,0XDF,0XF7,0XDF,
1421          0XFF,0XFE,0XFF,0XFE,0XFF,0XFF,0XF7,0XFF,0XF7,0XDF,0XE6,0XDD,0XBD,0X5A,0XDE,0X7E,
1422          0XDE,0X7E,0XB4,0XF8,0XCD,0XFB,0XEF,0X7F,0XEF,0X9F,0XE7,0X3F,0XAC,0X9C,0XAC,0X9D,
1423          0XBD,0X7D,0X7B,0X36,0XD6,0X3F,0XD6,0X3F,0XD6,0X3F,0XC5,0X9E,0X8B,0XF7,0XEF,0XDF,
1424          0XEF,0XBF,0XEF,0XBF,0XEF,0XBF,0XEF,0XBF,0XEF,0XBF,0XEF,0XBF,0XEF,0XBF,0XEF,0XDF,
1425          0XE6,0XDD,0XCD,0X9A,0XFF,0XFF,0XFF,0XFF,0XFF,0XFF,0XFF,0XFF,0XFF,0XDE,0XFF,0XBF,
1426          0XF7,0X5F,0XC5,0X5A,0XBC,0XFA,0XDE,0X3E,0XD6,0X5E,0XD6,0X7E,0XE6,0X7E,0XB4,0X97,
1427          0XB4,0X77,0XE6,0X7E,0XDE,0X9E,0XE6,0X9E,0XB4,0X77,0XB4,0X97,0XBC,0XB8,0XC5,0X9B,
1428          0XD6,0X7E,0XD6,0X7E,0XDE,0X7E,0XDE,0X9E,0XDE,0X9D,0XF7,0X9F,0XFF,0XDF,0XFF,0XFF,
1429          0XFF,0XFF,0XFF,0XDF,0XCD,0X9A,0XEF,0X1E,0XEF,0XBF,0XEF,0X9F,0XC5,0XFC,0X9C,0X5A,
1430          0XD6,0X3F,0XCD,0XFF,0XAC,0XBB,0XD6,0X3F,0XD6,0X5F,0XD6,0X3F,0XCE,0X1F,0X6A,0X94,
1431          0XAC,0XBC,0XEF,0X5F,0XEF,0XBF,0XF7,0XDF,0XEF,0XBF,0XEF,0XBF,0XEF,0XDF,0XEF,0XBF,
1432          0XEF,0XBF,0XEF,0XDF,0XEF,0XDF,0XEF,0XBF,0XEF,0XBF,0XEF,0XBF,0XEF,0XDF,0XEF,0XBF,
1433          0XEF,0XDF,0XEF,0XDF,0XEF,0XBF,0XEF,0XBF,0XFF,0XFE,0XFF,0XFE,0XFF,0XFE,0XFF,0XFF,
1434          0XFF,0XFF,0XFF,0XDF,0XEF,0X3F,0XBD,0X39,0XCD,0X7B,0XAC,0XB7,0XEF,0X7F,0XEF,0X7F,
1435          0XEF,0X7F,0XE7,0X7E,0XBD,0X3E,0XB5,0X3C,0XE7,0X5F,0X8B,0XD7,0XC5,0XBE,0XD6,0X5F,
1436          0XD6,0X5F,0XD6,0X1F,0X62,0X93,0XEF,0X9F,0XEF,0XBF,0XEF,0XBF,0XEF,0XBF,0XEF,0XBF,
1437          0XEF,0XDF,0XEF,0XBF,0XEF,0XBF,0XEF,0XBF,0XC5,0X79,0XF7,0X7F,0XFF,0XFF,0XFF,0XFF,
1438          0XFF,0XDF,0XFF,0XDF,0XEF,0X1D,0XCD,0X99,0XB4,0XD8,0XB4,0XFB,0XE6,0X3F,0XDE,0X5E,
1439          0XD5,0XFD,0XCD,0X9B,0XBC,0XB8,0XB4,0X36,0XA3,0X93,0XB4,0X56,0XAC,0X56,0X9B,0X93,
1440          0XA3,0XF5,0XA3,0XF5,0XDD,0XFD,0XB4,0X97,0XD6,0X3E,0XD6,0X7E,0XDE,0X7E,0XE6,0XFE,
1441          0XFF,0XBF,0XFF,0XDF,0XFF,0XDF,0XFF,0XFF,0XFF,0XFF,0XFF,0XFF,0XD5,0XFB,0XE6,0XFE,
1442          0XEF,0XDF,0XEF,0X9F,0XE7,0X5F,0X62,0XB3,0XCD,0XFF,0XD6,0X3F,0X83,0X97,0XD6,0X1F,
1443          0XD6,0X3F,0XD6,0X3F,0XD6,0X3F,0XBD,0X3D,0X9C,0X3B,0XEF,0X5F,0XF7,0XBF,0XEF,0XBF,
1444          0XEF,0XBF,0XEF,0XBF,0XEF,0XBF,0XEF,0XBF,0XEF,0XBF,0XEF,0XDF,0XEF,0XBF,0XEF,0XBF,
1445          0XEF,0XDF,0XEF,0XDF,0XEF,0XBF,0XEF,0XDF,0XEF,0XBF,0XEF,0XBF,0XEF,0XBF,0XEF,0XBF,
1446          0XFF,0XFE,0XFF,0XFE,0XFF,0XFE,0XFF,0XFF,0XFF,0XDF,0XFF,0XDF,0XFF,0XFF,0XF7,0X5F,
1447          0XAC,0XD7,0XB5,0X18,0XF7,0X5F,0XEF,0X7F,0XEF,0X9F,0XCE,0X3E,0XBD,0X9D,0XEF,0X7F,
1448          0XE7,0X9E,0XAD,0X3B,0XA4,0X7A,0XD6,0X5F,0XD6,0X7F,0XD6,0X3F,0X93,0XF8,0XD6,0X7E,
1449          0XEF,0XDF,0XF7,0XDF,0XF7,0XDF,0XEF,0XBF,0XEF,0XBF,0XEF,0XBF,0XEF,0XDF,0XEF,0X3E,
1450          0XC5,0X59,0XFF,0XFF,0XFF,0XFF,0XFF,0XDE,0XF7,0X3E,0XCD,0XBA,0XC4,0XB8,0XBC,0X99,
1451          0XBC,0XD8,0XAC,0X17,0X9B,0XB5,0XA3,0XB5,0X9B,0XB5,0XAC,0X36,0XB4,0X77,0XBC,0X77,
1452          0XA3,0X94,0XB4,0X36,0XB4,0X56,0X9B,0X52,0XA3,0XB4,0XA3,0XF5,0XAC,0X36,0XA3,0XD5,
1453          0XC5,0X39,0XE6,0XFD,0XEF,0X7F,0XFF,0XDF,0XFF,0XFF,0XFF,0XFF,0XFF,0XFF,0XFF,0XFF,
1454          0XFF,0XFF,0XFF,0XFF,0XD5,0XDA,0XE6,0XFE,0XF7,0XDF,0XEF,0XBF,0XEF,0XBF,0XB5,0XBB,
1455          0X7B,0X77,0XD6,0X3F,0XA4,0X9A,0XC5,0X7F,0XD6,0X3F,0XD6,0X5F,0XD6,0X3F,0XCE,0X1F,
1456          0X7B,0X76,0XBD,0XDB,0XF7,0XDF,0XF7,0XBF,0XEF,0XBF,0XEF,0XBF,0XEF,0XBF,0XF7,0XDF,
1457          0XEF,0XBF,0XEF,0XBF,0XEF,0XBF,0XEF,0XBF,0XEF,0XBF,0XEF,0XDF,0XEF,0XBF,0XEF,0XBF,
1458          0XEF,0XBF,0XEF,0XBF,0XEF,0XBF,0XEF,0XBF,0XFF,0XFE,0XFF,0XFE,0XFF,0XDE,0XFF,0XFF,
1459          0XFF,0XFE,0XFF,0XDE,0XFF,0XFF,0XF7,0XFF,0XEF,0X1E,0XC5,0X7A,0XA4,0X96,0XF7,0X9F,
1460          0XD6,0X9F,0XA5,0X1A,0XE7,0X7F,0XEF,0X9F,0XEF,0XBF,0XDE,0XBE,0X93,0XF9,0XD6,0X5F,
1461          0XD6,0X5F,0XD6,0X5F,0XC5,0X9E,0X83,0X96,0XEF,0XBF,0XEF,0XDF,0XEF,0XBF,0XEF,0XBF,
1462          0XEF,0XBF,0XEF,0XBF,0XEF,0XBF,0XDE,0XBD,0XDE,0X1B,0XF7,0XDF,0XFF,0X7F,0XCD,0X9A,
1463          0XB4,0XD8,0XC5,0X5A,0XC4,0XD9,0XBC,0X99,0XB4,0X57,0XBC,0XB9,0XC4,0XFA,0XC4,0XFA,
1464          0XC4,0XD9,0XC4,0XD9,0XBC,0XB8,0XA3,0XB4,0XA3,0X94,0XCC,0XB8,0XAB,0XD5,0XB4,0X15,
1465          0XAB,0XD5,0XB4,0X56,0XC4,0XD8,0XC4,0XB8,0XB4,0X77,0XF7,0X3F,0XFF,0XBF,0XFF,0XDE,
1466          0XFF,0XDE,0XFF,0XFF,0XFF,0XFF,0XFF,0XFF,0XFF,0XFF,0XF7,0XFF,0XCD,0XBA,0XEF,0X1E,
1467          0XEF,0XDF,0XEF,0XBF,0XEF,0XBF,0XEF,0XBF,0X7B,0X94,0XB4,0XFC,0XCD,0XFF,0X83,0X78,
1468          0XCE,0X1F,0XD6,0X3F,0XD6,0X5F,0XD6,0X3F,0XCE,0X1F,0X73,0X55,0XE7,0X3F,0XEF,0XBF,
1469          0XEF,0XBF,0XEF,0XBF,0XEF,0XBF,0XEF,0XBF,0XEF,0XBF,0XEF,0XBF,0XEF,0XBF,0XEF,0XBF,
1470          0XEF,0XBF,0XEF,0XBF,0XEF,0XBF,0XEF,0XBF,0XEF,0XBF,0XEF,0XBF,0XEF,0XBF,0XEF,0XBF,
1471          0XFF,0XFE,0XFF,0XFE,0XFF,0XFE,0XFF,0XFF,0XFF,0XDE,0XFF,0XFF,0XFF,0XFF,0XF7,0XFF,
1472          0XEF,0X9F,0XDE,0X9E,0XBD,0X1A,0XD5,0XFE,0XA4,0XDB,0XE7,0X3F,0XEF,0XBF,0XEF,0XBF,
1473          0XEF,0XBF,0XEF,0X7F,0X5A,0X53,0XD6,0X3F,0XD6,0X5F,0XD6,0X5F,0XD6,0X3F,0X73,0X15,
1474          0XDE,0XDE,0XEF,0XBF,0XF7,0XBF,0XEF,0XBF,0XEF,0XBF,0XEF,0XBF,0XEF,0XBF,0XE7,0X1E,
1475          0XBD,0X19,0XBD,0X39,0XB4,0XD9,0XC5,0X3A,0XD6,0X3E,0XCE,0X7E,0X93,0X74,0XBC,0XDA,
1476          0XC4,0XFA,0XC4,0XD9,0XC4,0XB9,0XBC,0XD9,0XAC,0X36,0XA3,0XD5,0XA3,0XB4,0XAB,0XF5,
C51 COMPILER V9.60.0.0   LCDDRIVER                                                         05/03/2021 21:31:15 PAGE 25  

1477          0XA3,0X94,0XAB,0XB4,0XAB,0XD5,0XB4,0X16,0XAB,0XF5,0XAB,0XD5,0XB4,0X36,0X9B,0XB4,
1478          0XAC,0X15,0XBC,0XD7,0XFF,0X9F,0XFF,0XDE,0XFF,0XDE,0XFF,0XFE,0XFF,0XFF,0XFF,0XFF,
1479          0XFF,0XFF,0XF7,0XFF,0XD5,0XFA,0XE6,0XFD,0XEF,0XBF,0XEF,0XBF,0XEF,0XBF,0XEF,0XDF,
1480          0XE7,0X5F,0X7B,0X76,0XCD,0XFF,0XA4,0XBC,0XB5,0X3D,0XD6,0X3F,0XD6,0X5F,0XD6,0X5F,
1481          0XD6,0X5F,0XC5,0X7E,0X73,0X34,0XEF,0X9F,0XEF,0XBF,0XEF,0XBF,0XEF,0XBF,0XEF,0XBF,
1482          0XEF,0XBF,0XEF,0XBF,0XEF,0XBF,0XEF,0XBF,0XEF,0XBF,0XEF,0XBF,0XEF,0XBF,0XEF,0XBF,
1483          0XEF,0XBF,0XEF,0XBF,0XEF,0XBF,0XEF,0XBF,0XFF,0XFE,0XFF,0XFE,0XFF,0XFE,0XFF,0XFE,
1484          0XFF,0XFE,0XFF,0XFF,0XFF,0XFF,0XFF,0XFF,0XF7,0X7F,0XDE,0X9E,0XC5,0X9C,0X9C,0X7A,
1485          0XDE,0XFF,0XEF,0XBF,0XEF,0XBF,0XEF,0XBF,0XEF,0XDF,0XEF,0XBF,0X8B,0XF6,0XBD,0X3D,
1486          0XD6,0X5F,0XD6,0X5F,0XD6,0X5E,0XBD,0X9D,0X8B,0XF7,0XE7,0X7F,0XF7,0XBF,0XEF,0XBF,
1487          0XEF,0XBF,0XEF,0XBF,0XEF,0XBF,0XEF,0XDF,0XEF,0X9F,0XE7,0X7E,0XE7,0X5F,0XCE,0X7F,
1488          0XC6,0X5F,0XC5,0XBD,0XA3,0XB5,0XC4,0X99,0XBC,0XD9,0XA3,0XF6,0XAB,0XF6,0XA3,0XF4,
1489          0XC5,0X5A,0XC5,0X19,0XB4,0X15,0X9B,0X73,0XC4,0XB8,0XC5,0X3A,0XDE,0X3D,0XBC,0X77,
1490          0XC4,0XB8,0XAB,0XF5,0XB4,0X77,0XE6,0X5D,0XDE,0X5D,0XCD,0X5A,0XCD,0XDB,0XFF,0XFF,
1491          0XFF,0XDF,0XFF,0XDE,0XFF,0XDE,0XFF,0XFF,0XFF,0XFF,0XF7,0XDF,0XC5,0X99,0XEF,0X3E,
1492          0XEF,0XDF,0XF7,0XBF,0XEF,0XBF,0XEF,0XDF,0XEF,0XBE,0XDE,0XFE,0X7B,0X74,0XCD,0XDF,
1493          0X72,0XF5,0XD6,0X1F,0XD6,0X3F,0XD6,0X5F,0XD6,0X5F,0XCE,0X3F,0X8B,0XD7,0XA4,0XBA,
1494          0XEF,0XBF,0XEF,0XDF,0XEF,0XBF,0XEF,0XBF,0XEF,0XBF,0XEF,0XBF,0XEF,0XBF,0XEF,0XBF,
1495          0XEF,0XBF,0XEF,0XBF,0XEF,0XBF,0XEF,0XBF,0XEF,0XBF,0XF7,0XDF,0XEF,0XBF,0XEF,0XBF,
1496          0XFF,0XFE,0XFF,0XFE,0XFF,0XFE,0XFF,0XFF,0XFF,0XFE,0XFF,0XFF,0XFF,0XFF,0XFF,0XFF,
1497          0XEF,0X5E,0XDE,0X9E,0XB4,0XDB,0XBD,0X9D,0XEF,0XDF,0XEF,0XBF,0XEF,0XBF,0XEF,0XBF,
1498          0XEF,0XDF,0XEF,0XBF,0XDE,0XBE,0X6A,0XB5,0XD6,0X1F,0XD6,0X5F,0XCE,0X5F,0XD6,0X3F,
1499          0X83,0X97,0XC5,0XDC,0XEF,0X9F,0XEF,0XBF,0XEF,0XBF,0XEF,0XBF,0XEF,0XBF,0XEF,0XBF,
1500          0XEF,0XDF,0XEF,0XDF,0XEF,0XDF,0XE7,0X5F,0XE7,0X3F,0XCD,0XDB,0XBC,0X97,0XBC,0X36,
1501          0XAB,0XD4,0XCD,0X3B,0XC5,0X3D,0XE6,0X7F,0XAC,0X36,0XAB,0XF5,0XC4,0X77,0XB4,0X36,
1502          0XAC,0X16,0XD6,0X3D,0XDE,0X9E,0XC4,0XF9,0XA3,0X94,0XC4,0X98,0XAC,0X15,0XBC,0XF8,
1503          0XDE,0X9D,0XDE,0X5E,0XAC,0XD8,0XE6,0X9C,0XFF,0XDF,0XFF,0XDE,0XFF,0XDE,0XFF,0XFF,
1504          0XFF,0XFF,0XFF,0XDF,0XC5,0X59,0XF7,0X9F,0XEF,0XDF,0XF7,0XBF,0XEF,0XBF,0XEF,0XBF,
1505          0XEF,0XBF,0XEF,0XBF,0XE7,0X1F,0X8C,0X17,0XA4,0X7A,0X9C,0X7A,0XD6,0X3F,0XD6,0X5F,
1506          0XD6,0X5F,0XD6,0X5F,0XD6,0X3F,0X8B,0XD8,0XCE,0X1E,0XEF,0XBF,0XEF,0XBF,0XEF,0XBF,
1507          0XEF,0XBF,0XEF,0XBF,0XEF,0XBF,0XEF,0XBF,0XEF,0XBF,0XEF,0XBF,0XEF,0XBF,0XEF,0XBF,
1508          0XEF,0XBF,0XEF,0XBF,0XEF,0XBF,0XEF,0XBF,0XFF,0XFE,0XFF,0XFE,0XFF,0XFE,0XFF,0XFF,
1509          0XFF,0XFE,0XFF,0XFF,0XFF,0XFF,0XFF,0XFF,0XFF,0XDF,0XDE,0X7D,0XA4,0X36,0XE6,0XDE,
1510          0XEF,0XBF,0XEF,0XDE,0XEF,0XDF,0XEF,0XBF,0XEF,0XBF,0XEF,0XBF,0XEF,0XBF,0X73,0X14,
1511          0XBD,0X5E,0XD6,0X5F,0XCE,0X5F,0XD6,0X3F,0XD6,0X1F,0X6A,0XD4,0XCE,0X5D,0XEF,0XBF,
1512          0XF7,0XDF,0XEF,0XBF,0XEF,0XBF,0XEF,0XBF,0XEF,0XBF,0XEF,0XBF,0XEF,0XBF,0XEF,0XDF,
1513          0XF7,0XDF,0XCD,0XBA,0XBC,0XB7,0XD5,0X9B,0XBC,0X97,0XDE,0X3F,0XC5,0X1C,0XA3,0XF5,
1514          0XCC,0XF9,0XCC,0XF9,0XBC,0X56,0XDD,0X7A,0XB4,0XD8,0XD6,0X5E,0XD6,0X9E,0XCD,0X7B,
1515          0XCD,0X19,0XAB,0XD4,0XCC,0XF9,0XA3,0XF5,0XBD,0X19,0XDE,0X7E,0XD6,0X7E,0XAC,0X97,
1516          0XDE,0X3C,0XFF,0X9F,0XFF,0XDF,0XF7,0XFF,0XF7,0XDF,0XEF,0X7E,0XBD,0X18,0XF7,0XDF,
1517          0XEF,0XDF,0XEF,0XBF,0XEF,0XBF,0XEF,0XBF,0XEF,0XBF,0XEF,0XBF,0XEF,0XBF,0XE7,0X5F,
1518          0X9C,0X98,0X5A,0X72,0XAC,0XBC,0XCE,0X1F,0XCE,0X5F,0XCE,0X5F,0XD6,0X5F,0XCE,0X1F,
1519          0X8B,0XF8,0XBD,0XBC,0XEF,0X9F,0XEF,0XDF,0XEF,0XBF,0XF7,0XDF,0XEF,0XBF,0XEF,0XBF,
1520          0XF7,0XDF,0XEF,0XBF,0XEF,0XBF,0XEF,0XBF,0XEF,0XBF,0XEF,0XBF,0XEF,0XBF,0XEF,0XBF,
1521          0XFF,0XFE,0XFF,0XFE,0XFF,0XFE,0XFF,0XFF,0XFF,0XFE,0XFF,0XDE,0XFF,0XFF,0XFF,0XFF,
1522          0XFF,0XDF,0XD5,0XFA,0XAC,0XB7,0XD6,0X9E,0XE7,0X9F,0XE7,0XFF,0XE7,0XDF,0XEF,0XDF,
1523          0XEF,0XDF,0XEF,0XBF,0XEF,0XBF,0XDE,0XDF,0X41,0X90,0XCE,0X1F,0XD6,0X5F,0XD6,0X3F,
1524          0XD6,0X5F,0XCD,0XFF,0X73,0X15,0XCE,0X3E,0XF7,0XDF,0XEF,0X9F,0XEF,0XBF,0XF7,0XBF,
1525          0XEF,0XBF,0XF7,0XDF,0XF7,0XDF,0XF7,0XDF,0XF7,0XDF,0XC5,0XBA,0XC4,0XD8,0XD5,0XBB,
1526          0XBC,0X97,0XB4,0X35,0XB4,0X77,0XDD,0XDC,0XC4,0X98,0XAB,0XF5,0XCD,0X5A,0XB4,0X56,
1527          0XD5,0XDC,0XDE,0X7E,0XD6,0X7E,0XDE,0X5D,0XD5,0X7B,0XAC,0X15,0XC4,0X98,0XC5,0X19,
1528          0X9B,0XB4,0XCD,0X9B,0XE6,0X7D,0XA4,0X15,0XC4,0XD8,0XB4,0X35,0XEF,0X5E,0XF7,0XFF,
1529          0XFF,0X9F,0XC5,0X58,0XDE,0XDD,0XEF,0XDF,0XEF,0XBF,0XF7,0XDF,0XEF,0XBF,0XF7,0XDF,
1530          0XEF,0XBF,0XEF,0XBF,0XEF,0XBF,0XEF,0XDF,0XEF,0XBF,0XE7,0X5F,0X73,0X35,0XB4,0XFD,
1531          0XD6,0X5F,0XCE,0X5F,0XD6,0X5F,0XD6,0X3F,0XD6,0X1F,0X94,0X38,0XBD,0X5B,0XE7,0X3F,
1532          0XEF,0X9F,0XEF,0XBF,0XEF,0XBF,0XEF,0XDF,0XEF,0XDF,0XEF,0XBF,0XEF,0XBF,0XEF,0XBF,
1533          0XEF,0XBF,0XEF,0XBF,0XEF,0XBF,0XEF,0XBF,0XFF,0XFE,0XFF,0XFE,0XFF,0XFE,0XFF,0XFF,
1534          0XFF,0XFE,0XFF,0XFE,0XFF,0XFF,0XFF,0XDF,0XCD,0XDA,0XB4,0XD7,0XEF,0X9F,0XE7,0X5F,
1535          0XBD,0XFD,0XDE,0XFE,0XEF,0XBF,0XEF,0XBF,0XEF,0XBF,0XEF,0XBF,0XEF,0XBF,0XF7,0XBF,
1536          0XB5,0X3B,0X72,0XF5,0XCE,0X1F,0XD6,0X3F,0XD6,0X3F,0XD6,0X3F,0XC5,0XBF,0X72,0XD5,
1537          0XCE,0X3E,0XEF,0X9F,0XEF,0XDF,0XEF,0XDF,0XEF,0XBF,0XEF,0XBF,0XEF,0XBF,0XF7,0XDF,
1538          0XEF,0XDF,0XDE,0X9D,0XB4,0X76,0XD5,0XBB,0XD5,0XBC,0XDD,0X9B,0XE5,0XDC,0XBC,0X97,
C51 COMPILER V9.60.0.0   LCDDRIVER                                                         05/03/2021 21:31:15 PAGE 26  

1539          0XA3,0XB4,0XBC,0X77,0XDD,0X9C,0XAC,0X15,0XE6,0X7E,0XDE,0X5E,0XD6,0X9E,0XEF,0X3F,
1540          0XC5,0X17,0XDD,0XBB,0X9B,0X94,0XD5,0X7B,0XC4,0XB8,0XA3,0XB4,0XD5,0X5A,0XA3,0XF5,
1541          0XE5,0X9B,0XC4,0X77,0XBC,0XF8,0XAC,0XD7,0XB4,0XD7,0XD6,0X1B,0XEF,0XDF,0XEF,0XDF,
1542          0XEF,0XBF,0XF7,0XBF,0XEF,0XBF,0XEF,0XBF,0XEF,0XBF,0XEF,0XBF,0XEF,0XBF,0XEF,0XDF,
1543          0XEF,0XBF,0XEF,0XBF,0XEF,0X5F,0X7B,0X35,0XAC,0XDB,0XCE,0X1F,0XCE,0X3F,0XD6,0X3F,
1544          0XCE,0X3E,0XCE,0X1F,0X9C,0X5A,0X83,0X76,0XA4,0X9A,0X94,0X17,0XB5,0XBB,0XEF,0XBF,
1545          0XEF,0XDF,0XEF,0XBF,0XEF,0XBF,0XEF,0XBF,0XEF,0XBF,0XEF,0XBF,0XEF,0XBF,0XEF,0XBF,
1546          0XFF,0XFE,0XFF,0XFE,0XFF,0XFE,0XFF,0XFF,0XFF,0XDE,0XFF,0XFE,0XFF,0XDF,0XCE,0X1A,
1547          0XB5,0X58,0XEF,0XBF,0XEF,0XBF,0XEF,0XBF,0XEF,0X9F,0XBD,0XBD,0XD6,0X9E,0XEF,0XBF,
1548          0XEF,0XBF,0XEF,0XBF,0XEF,0XDF,0XEF,0XBE,0XEF,0XBF,0X94,0X78,0X7B,0X36,0XCD,0XFF,
1549          0XD6,0X5F,0XD6,0X3F,0XD6,0X5F,0XCE,0X1F,0X8B,0XB8,0X9C,0X99,0XE7,0X5F,0XEF,0XDF,
1550          0XEF,0XDF,0XEF,0XDF,0XEF,0X7F,0XC5,0XFC,0XEF,0XBF,0XEF,0X5E,0X9B,0XD3,0XDD,0XBB,
1551          0XDD,0XDC,0XCD,0X5B,0XB4,0X57,0XB4,0X56,0XAC,0X15,0XDD,0X9C,0XB4,0X35,0XDE,0X3D,
1552          0XD6,0X3D,0XD6,0X9E,0XD6,0XBD,0XFF,0XBF,0XE6,0X9D,0XCD,0X7A,0XC4,0X97,0XAC,0X36,
1553          0XDD,0X9B,0XCC,0XD8,0X9B,0X32,0XDD,0X5A,0XBC,0X97,0XD6,0X3C,0XEF,0X9F,0XF7,0X9F,
1554          0XEF,0X9F,0XEF,0XDF,0XEF,0XBF,0XEF,0XBF,0XEF,0XBF,0XF7,0XBF,0XEF,0XBF,0XF7,0XDF,
1555          0XEF,0XBF,0XEF,0XBF,0XEF,0XBF,0XF7,0XDF,0XEF,0XBF,0XEF,0XBF,0XEF,0XBF,0XDE,0XDF,
1556          0XA4,0X9A,0X83,0X97,0XCD,0XFF,0XD6,0X5F,0XD6,0X3F,0XD6,0X5F,0XD6,0X3E,0XD6,0X3F,
1557          0XBD,0X5D,0X93,0XF9,0XDE,0XFE,0XEF,0XBF,0XEF,0XDF,0XEF,0XBF,0XEF,0XBF,0XEF,0XBF,
1558          0XEF,0XBF,0XEF,0XBF,0XEF,0XBF,0XEF,0XBF,0XFF,0XFF,0XFF,0XFF,0XFF,0XFF,0XFF,0XFF,
1559          0XFF,0XFE,0XF7,0XDF,0XCD,0XFA,0XB5,0X37,0XEF,0XBF,0XF7,0XDF,0XEF,0XBF,0XEF,0XBF,
1560          0XEF,0XBF,0XE7,0X7F,0XBD,0X9C,0XDE,0XDF,0XEF,0XDE,0XEF,0XBF,0XEF,0XBF,0XEF,0XDF,
1561          0XEF,0XDF,0XEF,0XBF,0X8C,0X57,0X5A,0X72,0XBD,0X5D,0XD6,0X5F,0XD6,0X5F,0XCE,0X5F,
1562          0XD6,0X3F,0XBD,0X7D,0X83,0X76,0XB5,0X3C,0XBD,0X7C,0XA4,0XDA,0X7B,0X35,0XB5,0X5A,
1563          0XF7,0XDF,0XEF,0XBF,0XAC,0XB5,0XD5,0X9B,0XC4,0X97,0X9B,0XD3,0XDD,0XBB,0XAC,0X15,
1564          0XD5,0X59,0XDD,0X7B,0XB4,0X56,0XDE,0X9E,0XCD,0XDC,0XDE,0X9E,0XEF,0X9E,0XFF,0XDF,
1565          0XF7,0X7E,0XB4,0X96,0XE5,0XDC,0XA3,0XB3,0XD5,0X39,0XDD,0XDB,0XDD,0X9B,0XDD,0X9A,
1566          0XAC,0X16,0XF7,0X9F,0XEF,0XBF,0XEF,0XBF,0XEF,0XDF,0XEF,0XDF,0XEF,0XBF,0XEF,0XDF,
1567          0XEF,0XDF,0XEF,0XDF,0XEF,0XDF,0XEF,0XBF,0XF7,0XBF,0XEF,0XDF,0XEF,0XBF,0XEF,0XBF,
1568          0XEF,0XBF,0XEF,0XBF,0XEF,0XDF,0XCE,0X5E,0XE7,0X3F,0XC6,0X1C,0X73,0X35,0X6A,0XB4,
1569          0X9C,0X5A,0XB5,0X3D,0XA4,0XBB,0X8B,0XB8,0XB5,0X5A,0XEF,0X7F,0XEF,0XBF,0XEF,0XBF,
1570          0XEF,0XBF,0XEF,0XBF,0XEF,0XBF,0XEF,0XBF,0XEF,0XBF,0XEF,0XBF,0XF7,0XDF,0XEF,0XBF,
1571          0XFF,0XFF,0XFF,0XFF,0XFF,0XFF,0XFF,0XFE,0XFF,0XFF,0XD6,0X3B,0XAC,0X95,0XEF,0XDF,
1572          0XF7,0XBF,0XEF,0XBF,0XEF,0XBF,0XEF,0XBF,0XEF,0XDF,0XEF,0XDF,0XEF,0X9F,0XB5,0X5C,
1573          0XE7,0X3F,0XEF,0XBF,0XEF,0XDF,0XEF,0XBF,0XEF,0XBF,0XEF,0XDF,0XEF,0XDF,0XDE,0XFF,
1574          0X62,0X93,0X62,0X73,0XB5,0X5D,0XD6,0X1F,0XCE,0X3F,0XD6,0X3F,0XD6,0X3F,0XCD,0XDF,
1575          0XB4,0XFC,0X6A,0X94,0XAD,0X3A,0XEF,0XBF,0XEF,0XDF,0XEF,0XDF,0XF7,0X7E,0X9B,0XD3,
1576          0XBD,0X18,0XF7,0X5F,0XD5,0X9A,0XCC,0X98,0XDD,0XFB,0XAB,0XF5,0XDE,0X3D,0XDE,0X9E,
1577          0XCD,0X9B,0XE7,0X1E,0XF7,0XDF,0XFF,0XFF,0XFF,0XDF,0XBC,0XF7,0XDD,0XBB,0XCC,0XF8,
1578          0XAB,0XB3,0XE5,0XBB,0XDD,0XBB,0XA3,0XB4,0XDE,0X7C,0XF7,0XDF,0XEF,0XBF,0XEF,0XBF,
1579          0XEF,0XDF,0XEF,0XDF,0XEF,0XBF,0XEF,0XDF,0XE7,0XDF,0XE7,0XDF,0XEF,0XDF,0XEF,0XBF,
1580          0XF7,0XBF,0XEF,0XDF,0XF7,0XDF,0XEF,0XBF,0XEF,0XBF,0XEF,0XBF,0XEF,0XBF,0XC5,0XDD,
1581          0XE7,0X3F,0XEF,0XDF,0XEF,0X9F,0XD6,0XBE,0XC5,0XDD,0XAD,0X3A,0XBD,0XBC,0XE7,0X3F,
1582          0XEF,0XBF,0XEF,0XBE,0XEF,0XBF,0XEF,0XBF,0XEF,0XBF,0XEF,0XBF,0XEF,0XBF,0XEF,0XBF,
1583          0XEF,0XBF,0XEF,0XBF,0XEF,0XBF,0XEF,0XBF,0XFF,0XFF,0XFF,0XFF,0XFF,0XFF,0XFF,0XFF,
1584          0XDE,0X7C,0XAC,0XB6,0XF7,0X9F,0XEF,0XDF,0XEF,0XDF,0XEF,0XBF,0XEF,0XBF,0XEF,0XBF,
1585          0XF7,0XDF,0XEF,0XDE,0XEF,0XBF,0XDF,0X1F,0XBD,0X7C,0XE7,0X5F,0XEF,0XDF,0XEF,0XBF,
1586          0XEF,0XDF,0XEF,0XDF,0XEF,0XDF,0XF7,0XDF,0XEF,0X9F,0XCE,0X5D,0X83,0XF6,0X83,0X77,
1587          0X6A,0X94,0X72,0XF5,0X5A,0X52,0X6A,0XB4,0X73,0X15,0XDE,0XDE,0XEF,0XBF,0XF7,0XBF,
1588          0XEF,0XBF,0XEF,0XBF,0XEF,0XDF,0XEF,0XBF,0XEF,0XDF,0XEF,0X1E,0XAB,0XF5,0XDD,0XBC,
1589          0XD5,0X5A,0XB4,0X57,0XDE,0X9F,0XD6,0X7D,0XCD,0XDB,0XF7,0XDF,0XFF,0XFF,0XFF,0XFF,
1590          0XF7,0XFF,0XEE,0XDD,0XBC,0X76,0XDD,0X7B,0XB4,0X36,0XBC,0X36,0XBC,0X76,0XC5,0XB9,
1591          0XF7,0XDF,0XF7,0XDF,0XEF,0XDF,0XEF,0XBF,0XEF,0XDF,0XEF,0XBF,0XEF,0XBF,0XEF,0XDF,
1592          0XEF,0XDF,0XEF,0XDF,0XEF,0XDF,0XEF,0XBF,0XF7,0XBF,0XEF,0XBF,0XEF,0XBF,0XEF,0XBF,
1593          0XEF,0XBF,0XEF,0XBF,0XE7,0X3F,0XA4,0XBC,0XE7,0X7F,0XEF,0XDF,0XEF,0XDF,0XEF,0XBF,
1594          0XEF,0XBF,0XEF,0XBF,0XEF,0XBF,0XEF,0XDF,0XEF,0XDF,0XEF,0XDF,0XEF,0XBF,0XEF,0XBF,
1595          0XEF,0XBF,0XEF,0XBF,0XEF,0XBF,0XEF,0XDF,0XEF,0XBF,0XEF,0XBF,0XEF,0XBF,0XEF,0XBF,
1596          0XFF,0XFF,0XFF,0XFF,0XFF,0XFE,0XE6,0XBC,0X9C,0X34,0XF7,0X9F,0XF7,0XDF,0XEF,0XDF,
1597          0XEF,0XDF,0XEF,0XBF,0XEF,0XBF,0XEF,0XBF,0XEF,0XBF,0XEF,0XDE,0XEF,0XBF,0XEF,0XBF,
1598          0XCE,0X5E,0XBD,0XFC,0XEF,0XBF,0XEF,0XBF,0XEF,0XDF,0XEF,0XBF,0XEF,0XBF,0XF7,0XDF,
1599          0XEF,0XDF,0XEF,0XDF,0XEF,0XBF,0XEF,0XBF,0XE7,0X3F,0XDE,0XDF,0XD6,0X9D,0XE7,0X5F,
1600          0XEF,0X9F,0XEF,0XBF,0XF7,0XDF,0XEF,0XDF,0XEF,0XBF,0XEF,0XBF,0XEF,0XBF,0XEF,0XDF,
C51 COMPILER V9.60.0.0   LCDDRIVER                                                         05/03/2021 21:31:15 PAGE 27  

1601          0XEF,0XDF,0XB4,0XF7,0XDD,0X7A,0XE5,0XDC,0XB4,0X36,0XDD,0XFD,0XD6,0X9E,0XDE,0X7E,
1602          0XDE,0X9C,0XFF,0XFF,0XFF,0XFE,0XFF,0XFE,0XFF,0XFF,0XF7,0XBE,0XB4,0X75,0XCC,0XF9,
1603          0XCC,0XF9,0XDD,0X9A,0XB4,0X95,0XF7,0XBF,0XF7,0XDF,0XF7,0XDF,0XEF,0XBF,0XEF,0XBF,
1604          0XEF,0XBF,0XEF,0XDF,0XEF,0XDF,0XEF,0XBF,0XEF,0XDF,0XEF,0XDF,0XEF,0XDF,0XEF,0XBF,
1605          0XEF,0XBF,0XEF,0XBF,0XEF,0XBF,0XEF,0XBF,0XEF,0XBF,0XEF,0XBF,0XAD,0X3C,0XAD,0X1D,
1606          0XDF,0X3F,0XEF,0XDF,0XEF,0XDF,0XEF,0XDF,0XEF,0XDF,0XEF,0XDF,0XEF,0XDF,0XEF,0XDF,
1607          0XEF,0XDF,0XEF,0XBF,0XEF,0XBF,0XEF,0XBF,0XEF,0XBF,0XEF,0XBF,0XEF,0XBF,0XEF,0XBF,
1608          0XEF,0XBF,0XEF,0XBF,0XEF,0XBF,0XEF,0XBF,0XFF,0XFE,0XFF,0XFF,0XF7,0X3E,0X9C,0X34,
1609          0XEF,0X9F,0XEF,0XDF,0XF7,0XDF,0XF7,0XBF,0XF7,0XBF,0XEF,0XBF,0XEF,0XBF,0XEF,0XDF,
1610          0XEF,0XBF,0XEF,0XBF,0XF7,0XDF,0XEF,0XBF,0XEF,0X9F,0XAD,0X3B,0XDF,0X3F,0XEF,0XBF,
1611          0XEF,0XDF,0XEF,0XBF,0XEF,0XBF,0XF7,0XDF,0XF7,0XDF,0XEF,0XFF,0XEF,0XFF,0XEF,0XDF,
1612          0XEF,0XDF,0XEF,0XBF,0XEF,0XBF,0XF7,0XDF,0XEF,0XBF,0XEF,0XBF,0XF7,0XDF,0XF7,0XFF,
1613          0XF7,0XFF,0XF7,0XDF,0XEF,0XBF,0XEF,0XDF,0XD5,0XFA,0XBC,0X97,0XDD,0XBC,0XD5,0X7B,
1614          0XAC,0X35,0XE6,0X7E,0XD6,0X9E,0XE6,0XBE,0XE6,0XFC,0XFF,0XDE,0XFF,0XFE,0XFF,0XFE,
1615          0XFF,0XFF,0XF7,0XFE,0XBD,0X17,0XBC,0X57,0XCD,0X3A,0XBC,0XD7,0XF7,0XBF,0XF7,0XDF,
1616          0XEF,0XBF,0XF7,0XFF,0XEF,0XBF,0XEF,0XBF,0XEF,0XBF,0XEF,0XDF,0XEF,0XDF,0XEF,0XBF,
1617          0XEF,0XBF,0XEF,0XBF,0XEF,0XBF,0XEF,0XBF,0XEF,0XBF,0XEF,0XBF,0XEF,0XBF,0XEF,0XBF,
1618          0XEF,0XBF,0XE7,0X3F,0XA4,0XFC,0XB5,0X3D,0XD6,0XDE,0XEF,0XDF,0XEF,0XDF,0XEF,0XBF,
1619          0XEF,0XBF,0XEF,0XBF,0XEF,0XDF,0XEF,0XDF,0XEF,0XBF,0XEF,0XBF,0XEF,0XBF,0XEF,0XBF,
1620          0XEF,0XBF,0XEF,0XBF,0XEF,0XBF,0XEF,0XDF,0XEF,0XBF,0XEF,0XBF,0XEF,0XBF,0XEF,0XBF,
1621          0XFF,0XFF,0XFF,0XBF,0XA4,0X35,0XE7,0X1E,0XEF,0XBF,0XEF,0XBF,0XEF,0XBF,0XEF,0XBF,
1622          0XEF,0XBF,0XEF,0XBF,0XEF,0XBF,0XEF,0XDF,0XEF,0XDF,0XF7,0XBF,0XEF,0XBF,0XEF,0XBF,
1623          0XEF,0XBF,0XD6,0XBF,0XBD,0X9C,0XE7,0XBF,0XEF,0XDF,0XEF,0XBF,0XEF,0XBF,0XF7,0XDF,
1624          0XF7,0XDF,0XEF,0XDF,0XEF,0XDF,0XF7,0XDF,0XEF,0XDF,0XEF,0XDF,0XEF,0XBF,0XEF,0XBF,
1625          0XF7,0XDF,0XEF,0XBF,0XF7,0XFF,0XF7,0XFF,0XF7,0XFF,0XF7,0XDF,0XEF,0XDF,0XEF,0X5F,
1626          0XA3,0XF5,0XDD,0XBB,0XDD,0XBC,0XA3,0XF5,0XCD,0XDC,0XDE,0X7F,0XDE,0XBE,0XEF,0X5F,
1627          0XEE,0XDC,0XFF,0XDE,0XFF,0XFE,0XFF,0XFE,0XFF,0XFF,0XFF,0XFE,0XF7,0X3E,0XA3,0XB4,
1628          0XCD,0X3A,0XAC,0X35,0XF7,0X5F,0XF7,0XDF,0XEF,0XDF,0XEF,0XFF,0XEF,0XDF,0XEF,0XBF,
1629          0XEF,0XBF,0XEF,0XBF,0XEF,0XBF,0XEF,0XBF,0XEF,0XBF,0XEF,0XBF,0XEF,0XBF,0XEF,0XBF,
1630          0XEF,0XBF,0XEF,0XBF,0XEF,0XBF,0XEF,0XBF,0XEF,0XBF,0XCE,0X3E,0XBD,0XBE,0XBD,0X7E,
1631          0XCE,0X5F,0XEF,0XBF,0XEF,0XDF,0XEF,0XDF,0XEF,0XBF,0XEF,0XBF,0XEF,0XBF,0XEF,0XBF,
1632          0XEF,0XBF,0XF7,0XDF,0XEF,0XBF,0XEF,0XBF,0XEF,0XBF,0XEF,0XBF,0XEF,0XDF,0XEF,0XDF,
1633          0XEF,0XBF,0XEF,0XBF,0XEF,0XBF,0XEF,0XBF,0XF7,0XDF,0XD5,0XFB,0XD6,0X7C,0XE7,0XDF,
1634          0XEF,0XBF,0XEF,0XBF,0XEF,0XBF,0XEF,0XBF,0XEF,0XBF,0XEF,0XBF,0XEF,0XBF,0XEF,0XBF,
1635          0XEF,0XBF,0XEF,0XBF,0XEF,0XBF,0XEF,0XBF,0XEF,0XBF,0XEF,0XBF,0XB5,0X7C,0XE7,0X5F,
1636          0XEF,0XDF,0XEF,0XBF,0XEF,0XBF,0XEF,0XDF,0XEF,0XFF,0XEF,0XDF,0XEF,0XDF,0XEF,0XBF,
1637          0XEF,0XBF,0XEF,0XBF,0XEF,0XBF,0XF7,0XDF,0XF7,0XDF,0XF7,0XFF,0XF7,0XFF,0XF7,0XFF,
1638          0XF7,0XFF,0XF7,0XDF,0XEF,0XDF,0XAC,0X96,0XD5,0X3A,0XDD,0XBB,0XE5,0XBB,0XAC,0X35,
1639          0XDE,0X9E,0XD6,0X9E,0XDE,0XBE,0XF7,0X7F,0XF7,0X5E,0XFF,0XFF,0XFF,0XFE,0XFF,0XFF,
1640          0XFF,0XFF,0XFF,0XFE,0XFF,0XDF,0XAC,0X76,0XBC,0XD7,0XD5,0X7A,0XAC,0X76,0XFF,0XDF,
1641          0XEF,0XDF,0XEF,0XDF,0XEF,0XDF,0XEF,0XBF,0XEF,0XBF,0XEF,0XBF,0XEF,0XBF,0XEF,0XBF,
1642          0XEF,0XBF,0XEF,0XBF,0XEF,0XBF,0XEF,0XBF,0XEF,0XBF,0XEF,0XBF,0XF7,0XDF,0XEF,0XBF,
1643          0XEF,0X9F,0XB5,0X5D,0XC6,0X1E,0XBD,0XBE,0XB5,0X7D,0XE7,0XBF,0XE7,0XDF,0XEF,0XDF,
1644          0XEF,0XDF,0XEF,0XBF,0XEF,0XBF,0XEF,0XBF,0XEF,0XBF,0XEF,0XBF,0XEF,0XBF,0XEF,0XBF,
1645          0XEF,0XBF,0XEF,0XBF,0XEF,0XBF,0XEF,0XBF,0XEF,0XBF,0XEF,0XBF,0XEF,0XBF,0XEF,0XBF,
1646          };
1647          
C51 COMPILER V9.60.0.0   LCDDRIVER                                                         05/03/2021 21:31:15 PAGE 28  

ASSEMBLY LISTING OF GENERATED OBJECT CODE


             ; FUNCTION Com0089 (BEGIN)
0000         L?0138:
0000 900000      R     MOV     DPTR,#fontSize
0003 E0                MOVX    A,@DPTR
0004 FE                MOV     R6,A
0005 A3                INC     DPTR
0006 E0                MOVX    A,@DPTR
0007 FF                MOV     R7,A
0008 7C00              MOV     R4,#00H
000A 7D02              MOV     R5,#02H
000C 120000      E     LCALL   ?C?SIDIV
000F 900000      R     MOV     DPTR,#t
0012         L?0139:
0012 E0                MOVX    A,@DPTR
0013 FC                MOV     R4,A
0014 A3                INC     DPTR
0015 C3                CLR     C
0016         L?0140:
0016 E0                MOVX    A,@DPTR
0017 FD                MOV     R5,A
0018         L?0141:
0018 9F                SUBB    A,R7
0019 EE                MOV     A,R6
001A 6480              XRL     A,#080H
001C F8                MOV     R0,A
001D EC                MOV     A,R4
001E 6480              XRL     A,#080H
0020 98                SUBB    A,R0
0021 22                RET     
0022         L?0142:
0022 E0                MOVX    A,@DPTR
0023 FC                MOV     R4,A
0024 A3                INC     DPTR
0025 E0                MOVX    A,@DPTR
0026 FD                MOV     R5,A
0027 900000      R     MOV     DPTR,#y2
002A         L?0143:
002A E0                MOVX    A,@DPTR
002B FF                MOV     R7,A
002C A3                INC     DPTR
002D E0                MOVX    A,@DPTR
002E 900000      R     MOV     DPTR,#?_LCD_DrawLine?BYTE+06H
0031 CF                XCH     A,R7
0032 F0                MOVX    @DPTR,A
0033 A3                INC     DPTR
0034 EF                MOV     A,R7
0035 F0                MOVX    @DPTR,A
0036 900000      R     MOV     DPTR,#color
0039 E0                MOVX    A,@DPTR
003A FF                MOV     R7,A
003B A3                INC     DPTR
003C E0                MOVX    A,@DPTR
003D 900000      R     MOV     DPTR,#?_LCD_DrawLine?BYTE+08H
0040 CF                XCH     A,R7
0041 F0                MOVX    @DPTR,A
0042 A3                INC     DPTR
0043 EF                MOV     A,R7
0044 F0                MOVX    @DPTR,A
0045 22                RET     
C51 COMPILER V9.60.0.0   LCDDRIVER                                                         05/03/2021 21:31:15 PAGE 29  

0046         L?0145:
0046         L?0146:
0046 EE                MOV     A,R6
0047 F0                MOVX    @DPTR,A
0048 A3                INC     DPTR
0049 EF                MOV     A,R7
004A F0                MOVX    @DPTR,A
004B A3                INC     DPTR
004C EC                MOV     A,R4
004D F0                MOVX    @DPTR,A
004E A3                INC     DPTR
004F ED                MOV     A,R5
0050 F0                MOVX    @DPTR,A
0051 22                RET     
0052         L?0147:
0052 900000      R     MOV     DPTR,#x+01H
0055 E0                MOVX    A,@DPTR
0056 2D                ADD     A,R5
0057 FF                MOV     R7,A
0058 900000      R     MOV     DPTR,#x
005B E0                MOVX    A,@DPTR
005C 3C                ADDC    A,R4
005D FE                MOV     R6,A
005E 900000      R     MOV     DPTR,#pos
0061 E0                MOVX    A,@DPTR
0062 FC                MOV     R4,A
0063 A3                INC     DPTR
0064 E0                MOVX    A,@DPTR
0065 FD                MOV     R5,A
0066 900000      R     MOV     DPTR,#y+01H
0069 E0                MOVX    A,@DPTR
006A 2D                ADD     A,R5
006B FD                MOV     R5,A
006C 900000      R     MOV     DPTR,#y
006F E0                MOVX    A,@DPTR
0070 900000      R     MOV     DPTR,#fgColor
0073         L?0148:
0073 3C                ADDC    A,R4
0074 FC                MOV     R4,A
0075 E0                MOVX    A,@DPTR
0076 FA                MOV     R2,A
0077 A3                INC     DPTR
0078 E0                MOVX    A,@DPTR
0079 FB                MOV     R3,A
007A 22                RET     
007B         L?0150:
007B         L?0151:
007B F583              MOV     DPH,A
007D E582              MOV     A,DPL
007F 2D                ADD     A,R5
0080 F582              MOV     DPL,A
0082 E583              MOV     A,DPH
0084 3C                ADDC    A,R4
0085 F583              MOV     DPH,A
0087 E4                CLR     A
0088 93                MOVC    A,@A+DPTR
0089 FF                MOV     R7,A
008A 900000      R     MOV     DPTR,#temp
008D E4                CLR     A
008E F0                MOVX    @DPTR,A
008F A3                INC     DPTR
0090 EF                MOV     A,R7
C51 COMPILER V9.60.0.0   LCDDRIVER                                                         05/03/2021 21:31:15 PAGE 30  

0091 F0                MOVX    @DPTR,A
0092 22                RET     
0093         L?0152:
0093 900000      R     MOV     DPTR,#a
0096         L?0153:
0096 E0                MOVX    A,@DPTR
0097 FE                MOV     R6,A
0098 A3                INC     DPTR
0099 E0                MOVX    A,@DPTR
009A FF                MOV     R7,A
009B         L?0154:
009B C3                CLR     C
009C 900000      R     MOV     DPTR,#x0+01H
009F E0                MOVX    A,@DPTR
00A0 9F                SUBB    A,R7
00A1 FF                MOV     R7,A
00A2 900000      R     MOV     DPTR,#x0
00A5 E0                MOVX    A,@DPTR
00A6 9E                SUBB    A,R6
00A7 22                RET     
00A8         L?0155:
00A8         L?0156:
00A8 900000      R     MOV     DPTR,#temp
00AB E0                MOVX    A,@DPTR
00AC A2E7              MOV     C,ACC.7
00AE 13                RRC     A
00AF F0                MOVX    @DPTR,A
00B0 A3                INC     DPTR
00B1 E0                MOVX    A,@DPTR
00B2 13                RRC     A
00B3 F0                MOVX    @DPTR,A
00B4 900000      R     MOV     DPTR,#t+01H
00B7 E0                MOVX    A,@DPTR
00B8 04                INC     A
00B9 F0                MOVX    @DPTR,A
00BA 22                RET     
00BB         L?0157:
00BB 900000      R     MOV     DPTR,#q
00BE         L?0158:
00BE E0                MOVX    A,@DPTR
00BF FB                MOV     R3,A
00C0         L?0159:
00C0 A3                INC     DPTR
00C1 E0                MOVX    A,@DPTR
00C2 FA                MOV     R2,A
00C3 A3                INC     DPTR
00C4 E0                MOVX    A,@DPTR
00C5 F9                MOV     R1,A
00C6 22                RET     
00C7         L?0160:
00C7 900000      R     MOV     DPTR,#p
00CA E0                MOVX    A,@DPTR
00CB FF                MOV     R7,A
00CC 33                RLC     A
00CD 95E0              SUBB    A,ACC
00CF FE                MOV     R6,A
00D0 EF                MOV     A,R7
00D1 C4                SWAP    A
00D2 F8                MOV     R0,A
00D3 540F              ANL     A,#0FH
00D5 C8                XCH     A,R0
00D6 68                XRL     A,R0
C51 COMPILER V9.60.0.0   LCDDRIVER                                                         05/03/2021 21:31:15 PAGE 31  

00D7 FF                MOV     R7,A
00D8 EE                MOV     A,R6
00D9 C4                SWAP    A
00DA 54F0              ANL     A,#0F0H
00DC 48                ORL     A,R0
00DD FE                MOV     R6,A
00DE 7400        E     MOV     A,#LOW ASCII_8x16
00E0 2F                ADD     A,R7
00E1 F582              MOV     DPL,A
00E3 7400        E     MOV     A,#HIGH ASCII_8x16
00E5 3E                ADDC    A,R6
00E6 22                RET     
00E7         L?0161:
00E7 900000      R     MOV     DPTR,#fontSize
00EA E0                MOVX    A,@DPTR
00EB FA                MOV     R2,A
00EC A3                INC     DPTR
00ED E0                MOVX    A,@DPTR
00EE FB                MOV     R3,A
00EF 7C00              MOV     R4,#00H
00F1 7D02              MOV     R5,#02H
00F3 FF                MOV     R7,A
00F4 AE02              MOV     R6,AR2
00F6 120000      E     LCALL   ?C?SIDIV
00F9 AC06              MOV     R4,AR6
00FB AD07              MOV     R5,AR7
00FD AF03              MOV     R7,AR3
00FF AE02              MOV     R6,AR2
0101 120000      E     LCALL   ?C?IMUL
0104 7C00              MOV     R4,#00H
0106 22                RET     
0107         L?0162:
0107 900000      R     MOV     DPTR,#fontSize
010A E0                MOVX    A,@DPTR
010B FE                MOV     R6,A
010C A3                INC     DPTR
010D E0                MOVX    A,@DPTR
010E FF                MOV     R7,A
010F 7C00              MOV     R4,#00H
0111 020000      E     LJMP    ?C?SIDIV
0114         L?0163:
0114 900000      R     MOV     DPTR,#p
0117 E0                MOVX    A,@DPTR
0118 FF                MOV     R7,A
0119 33                RLC     A
011A 95E0              SUBB    A,ACC
011C FE                MOV     R6,A
011D 900000      E     MOV     DPTR,#ASCII_12x24
0120 75F030            MOV     B,#030H
0123 EF                MOV     A,R7
0124 120000      E     LCALL   ?C?OFFXADD
0127 EE                MOV     A,R6
0128 75F030            MOV     B,#030H
012B A4                MUL     AB
012C 2583              ADD     A,DPH
012E 22                RET     
012F         L?0165:
012F FE                MOV     R6,A
0130 900000      R     MOV     DPTR,#b
0133 E0                MOVX    A,@DPTR
0134 FC                MOV     R4,A
0135 A3                INC     DPTR
C51 COMPILER V9.60.0.0   LCDDRIVER                                                         05/03/2021 21:31:15 PAGE 32  

0136 E0                MOVX    A,@DPTR
0137 FD                MOV     R5,A
0138 C3                CLR     C
0139 900000      R     MOV     DPTR,#y0+01H
013C E0                MOVX    A,@DPTR
013D 9D                SUBB    A,R5
013E FD                MOV     R5,A
013F 900000      R     MOV     DPTR,#y0
0142 E0                MOVX    A,@DPTR
0143 9C                SUBB    A,R4
0144 22                RET     
0145         L?0166:
0145 E0                MOVX    A,@DPTR
0146 FE                MOV     R6,A
0147 A3                INC     DPTR
0148 E0                MOVX    A,@DPTR
0149 FF                MOV     R7,A
014A         L?0167:
014A A3                INC     DPTR
014B E0                MOVX    A,@DPTR
014C FC                MOV     R4,A
014D A3                INC     DPTR
014E E0                MOVX    A,@DPTR
014F FD                MOV     R5,A
0150 22                RET     
0151         L?0168:
0151 900000      R     MOV     DPTR,#b
0154 E0                MOVX    A,@DPTR
0155 FE                MOV     R6,A
0156 A3                INC     DPTR
0157 E0                MOVX    A,@DPTR
0158 FF                MOV     R7,A
0159 900000      R     MOV     DPTR,#x0+01H
015C E0                MOVX    A,@DPTR
015D 2F                ADD     A,R7
015E FF                MOV     R7,A
015F 900000      R     MOV     DPTR,#x0
0162 E0                MOVX    A,@DPTR
0163 3E                ADDC    A,R6
0164 22                RET     
0165         L?0169:
0165 FE                MOV     R6,A
0166 900000      R     MOV     DPTR,#a
0169 E0                MOVX    A,@DPTR
016A FC                MOV     R4,A
016B A3                INC     DPTR
016C E0                MOVX    A,@DPTR
016D FD                MOV     R5,A
016E 900000      R     MOV     DPTR,#y0+01H
0171 E0                MOVX    A,@DPTR
0172 2D                ADD     A,R5
0173 FD                MOV     R5,A
0174 900000      R     MOV     DPTR,#y0
0177 E0                MOVX    A,@DPTR
0178 22                RET     
0179         L?0170:
0179         L?0171:
0179 E0                MOVX    A,@DPTR
017A FC                MOV     R4,A
017B A3                INC     DPTR
017C E0                MOVX    A,@DPTR
017D FD                MOV     R5,A
C51 COMPILER V9.60.0.0   LCDDRIVER                                                         05/03/2021 21:31:15 PAGE 33  

017E FF                MOV     R7,A
017F AE04              MOV     R6,AR4
0181 020000      E     LJMP    ?C?IMUL
0184         L?0172:
0184 F0                MOVX    @DPTR,A
0185         L?0173:
0185 A3                INC     DPTR
0186 EA                MOV     A,R2
0187 F0                MOVX    @DPTR,A
0188 A3                INC     DPTR
0189 EB                MOV     A,R3
018A F0                MOVX    @DPTR,A
018B 22                RET     
018C         L?0175:
018C 900000      R     MOV     DPTR,#i
018F         L?0176:
018F E4                CLR     A
0190 75F001            MOV     B,#01H
0193 020000      E     LJMP    ?C?ILDIX
0196         L?0177:
0196 34FF              ADDC    A,#0FFH
0198         L?0178:
0198 900000      R     MOV     DPTR,#?_LCD_SetRegion?BYTE+06H
019B F0                MOVX    @DPTR,A
019C A3                INC     DPTR
019D EF                MOV     A,R7
019E F0                MOVX    @DPTR,A
019F 22                RET     
01A0         L?0179:
01A0         L?0180:
01A0 E0                MOVX    A,@DPTR
01A1 FA                MOV     R2,A
01A2 A3                INC     DPTR
01A3 E0                MOVX    A,@DPTR
01A4 FB                MOV     R3,A
01A5 FF                MOV     R7,A
01A6 AE02              MOV     R6,AR2
01A8 22                RET     
01A9         L?0181:
01A9         L?0182:
01A9 900000      R     MOV     DPTR,#delta_x
01AC E0                MOVX    A,@DPTR
01AD FE                MOV     R6,A
01AE A3                INC     DPTR
01AF E0                MOVX    A,@DPTR
01B0 FF                MOV     R7,A
01B1 22                RET     
01B2         L?0183:
01B2         L?0184:
01B2 900000      R     MOV     DPTR,#delta_y
01B5 E0                MOVX    A,@DPTR
01B6 FE                MOV     R6,A
01B7 A3                INC     DPTR
01B8 E0                MOVX    A,@DPTR
01B9 FF                MOV     R7,A
01BA 22                RET     
01BB         L?0185:
01BB 900000      R     MOV     DPTR,#k+01H
01BE E0                MOVX    A,@DPTR
01BF 25E0              ADD     A,ACC
01C1 FF                MOV     R7,A
01C2 900000      R     MOV     DPTR,#k
C51 COMPILER V9.60.0.0   LCDDRIVER                                                         05/03/2021 21:31:15 PAGE 34  

01C5 E0                MOVX    A,@DPTR
01C6 33                RLC     A
01C7 FE                MOV     R6,A
01C8 22                RET     
01C9         L?0189:
01C9 EB                MOV     A,R3
01CA         L?0190:
01CA F0                MOVX    @DPTR,A
01CB A3                INC     DPTR
01CC EA                MOV     A,R2
01CD F0                MOVX    @DPTR,A
01CE A3                INC     DPTR
01CF E9                MOV     A,R1
01D0 F0                MOVX    @DPTR,A
01D1 22                RET     
01D2         L?0191:
01D2 7C00              MOV     R4,#00H
01D4 7D0A              MOV     R5,#0AH
01D6 AF03              MOV     R7,AR3
01D8 AE02              MOV     R6,AR2
01DA 020000      E     LJMP    ?C?SIDIV
01DD         L?0192:
01DD         L?0193:
01DD 7C00              MOV     R4,#00H
01DF 7D02              MOV     R5,#02H
01E1 020000      E     LJMP    ?C?SIDIV
01E4         L?0194:
01E4         L?0195:
01E4 E4                CLR     A
01E5 900000      R     MOV     DPTR,#t
01E8 F0                MOVX    @DPTR,A
01E9 A3                INC     DPTR
01EA F0                MOVX    @DPTR,A
01EB 22                RET     
01EC         L?0196:
01EC E4                CLR     A
01ED 75F001            MOV     B,#01H
01F0 020000      E     LJMP    ?C?IILDX
01F3         L?0197:
01F3         L?0198:
01F3 900000      R     MOV     DPTR,#pos
01F6 F0                MOVX    @DPTR,A
01F7 A3                INC     DPTR
01F8 F0                MOVX    @DPTR,A
01F9 22                RET     
01FA         L?0199:
01FA 9F                SUBB    A,R7
01FB EE                MOV     A,R6
01FC 6480              XRL     A,#080H
01FE F8                MOV     R0,A
01FF E0                MOVX    A,@DPTR
0200 6480              XRL     A,#080H
0202 98                SUBB    A,R0
0203 22                RET     
0204         L?0200:
0204         L?0201:
0204 900000      R     MOV     DPTR,#t
0207 E0                MOVX    A,@DPTR
0208 04                INC     A
0209 F0                MOVX    @DPTR,A
020A 22                RET     
020B         L?0202:
C51 COMPILER V9.60.0.0   LCDDRIVER                                                         05/03/2021 21:31:15 PAGE 35  

020B         L?0203:
020B 900000      R     MOV     DPTR,#pos+01H
020E E0                MOVX    A,@DPTR
020F 04                INC     A
0210 F0                MOVX    @DPTR,A
0211 22                RET     
0212         L?0204:
0212         L?0205:
0212 900000      R     MOV     DPTR,#pos
0215 E0                MOVX    A,@DPTR
0216 04                INC     A
0217 F0                MOVX    @DPTR,A
0218 22                RET     
0219         L?0206:
0219 ED                MOV     A,R5
021A 9F                SUBB    A,R7
021B FF                MOV     R7,A
021C EC                MOV     A,R4
021D 9E                SUBB    A,R6
021E F0                MOVX    @DPTR,A
021F A3                INC     DPTR
0220 EF                MOV     A,R7
0221 F0                MOVX    @DPTR,A
0222 22                RET     
             ; FUNCTION Com0089 (END)

             ; FUNCTION _reverse (BEGIN)
                                           ; SOURCE LINE # 8
0000 900000      R     MOV     DPTR,#s
0003 120000      R     LCALL   L?0189
                                           ; SOURCE LINE # 10
0006 A3                INC     DPTR
0007 120000      R     LCALL   L?0189
                                           ; SOURCE LINE # 11
000A 900000      R     MOV     DPTR,#s
000D E0                MOVX    A,@DPTR
000E F9                MOV     R1,A
000F A3                INC     DPTR
0010 E0                MOVX    A,@DPTR
0011 FA                MOV     R2,A
0012 A3                INC     DPTR
0013 E0                MOVX    A,@DPTR
0014 900000      R     MOV     DPTR,#q
0017 C9                XCH     A,R1
0018 120000      R     LCALL   L?0190
001B         ?C0001:
                                           ; SOURCE LINE # 12
001B 120000      R     LCALL   L?0157
001E 120000      E     LCALL   ?C?CLDPTR
0021 6008              JZ      ?C0002
                                           ; SOURCE LINE # 13
0023 900000      R     MOV     DPTR,#q+01H
0026 120000      R     LCALL   L?0196
0029 80F0              SJMP    ?C0001
002B         ?C0002:
                                           ; SOURCE LINE # 14
002B 900000      R     MOV     DPTR,#q+01H
002E 74FF              MOV     A,#0FFH
0030 F5F0              MOV     B,A
0032 120000      E     LCALL   ?C?IILDX
0035         ?C0003:
                                           ; SOURCE LINE # 17
C51 COMPILER V9.60.0.0   LCDDRIVER                                                         05/03/2021 21:31:15 PAGE 36  

0035 900000      R     MOV     DPTR,#p
0038 120000      R     LCALL   L?0158
003B C003              PUSH    AR3
003D C002              PUSH    AR2
003F C001              PUSH    AR1
0041 A3                INC     DPTR
0042 120000      R     LCALL   L?0159
0045 D3                SETB    C
0046 D082              POP     DPL
0048 D083              POP     DPH
004A D0E0              POP     ACC
004C E9                MOV     A,R1
004D 9582              SUBB    A,DPL
004F EA                MOV     A,R2
0050 9583              SUBB    A,DPH
0052         ?C0113:
0052 4037              JC      ?C0004
                                           ; SOURCE LINE # 18
                                           ; SOURCE LINE # 19
0054 900000      R     MOV     DPTR,#p
0057 120000      R     LCALL   L?0159
005A 120000      E     LCALL   ?C?CLDPTR
005D FF                MOV     R7,A
;---- Variable 'temp' assigned to Register 'R7' ----
                                           ; SOURCE LINE # 20
005E 120000      R     LCALL   L?0157
0061 120000      E     LCALL   ?C?CLDPTR
0064 FE                MOV     R6,A
0065 900000      R     MOV     DPTR,#p
0068 E0                MOVX    A,@DPTR
0069 FB                MOV     R3,A
006A A3                INC     DPTR
006B 120000      R     LCALL   L?0176
006E A9F0              MOV     R1,B
0070 FA                MOV     R2,A
0071 EE                MOV     A,R6
0072 120000      E     LCALL   ?C?CSTPTR
                                           ; SOURCE LINE # 21
0075 900000      R     MOV     DPTR,#q
0078 E0                MOVX    A,@DPTR
0079 FB                MOV     R3,A
007A A3                INC     DPTR
007B 74FF              MOV     A,#0FFH
007D F5F0              MOV     B,A
007F 120000      E     LCALL   ?C?ILDIX
0082 A9F0              MOV     R1,B
0084 FA                MOV     R2,A
0085 EF                MOV     A,R7
0086 120000      E     LCALL   ?C?CSTPTR
                                           ; SOURCE LINE # 22
0089 80AA              SJMP    ?C0003
008B         ?C0004:
                                           ; SOURCE LINE # 23
008B 900000      R     MOV     DPTR,#s
008E 120000      R     LCALL   L?0158
                                           ; SOURCE LINE # 24
0091 22                RET     
             ; FUNCTION _reverse (END)

             ; FUNCTION _itoa (BEGIN)
                                           ; SOURCE LINE # 25
;---- Variable 'n' assigned to Register 'R2/R3' ----
C51 COMPILER V9.60.0.0   LCDDRIVER                                                         05/03/2021 21:31:15 PAGE 37  

0000 AB07              MOV     R3,AR7
0002 AA06              MOV     R2,AR6
                                           ; SOURCE LINE # 26
                                           ; SOURCE LINE # 27
0004 E4                CLR     A
0005 900000      R     MOV     DPTR,#i
0008 F0                MOVX    @DPTR,A
0009 A3                INC     DPTR
000A F0                MOVX    @DPTR,A
000B A3                INC     DPTR
000C F0                MOVX    @DPTR,A
000D A3                INC     DPTR
000E F0                MOVX    @DPTR,A
                                           ; SOURCE LINE # 29
000F 900000      R     MOV     DPTR,#isNegative
0012 EA                MOV     A,R2
0013 F0                MOVX    @DPTR,A
0014 A3                INC     DPTR
0015 EB                MOV     A,R3
0016 F0                MOVX    @DPTR,A
0017 C3                CLR     C
0018 EE                MOV     A,R6
0019 6480              XRL     A,#080H
001B 9480              SUBB    A,#080H
001D 5007              JNC     ?C0009
                                           ; SOURCE LINE # 30
                                           ; SOURCE LINE # 31
001F C3                CLR     C
0020 E4                CLR     A
0021 9B                SUBB    A,R3
0022 FB                MOV     R3,A
0023 E4                CLR     A
0024 9A                SUBB    A,R2
0025 FA                MOV     R2,A
                                           ; SOURCE LINE # 32
0026         ?C0009:
                                           ; SOURCE LINE # 34
                                           ; SOURCE LINE # 35
0026 120000      R     LCALL   L?0191
0029 ED                MOV     A,R5
002A 2430              ADD     A,#030H
002C FF                MOV     R7,A
002D 120000      R     LCALL   L?0175
0030 FC                MOV     R4,A
0031 7400        R     MOV     A,#LOW s
0033 25F0              ADD     A,B
0035 F582              MOV     DPL,A
0037 7400        R     MOV     A,#HIGH s
0039 3C                ADDC    A,R4
003A F583              MOV     DPH,A
003C EF                MOV     A,R7
003D F0                MOVX    @DPTR,A
                                           ; SOURCE LINE # 36
003E 120000      R     LCALL   L?0191
0041 AA06              MOV     R2,AR6
0043 AB07              MOV     R3,AR7
                                           ; SOURCE LINE # 37
0045 D3                SETB    C
0046 EB                MOV     A,R3
0047 9400              SUBB    A,#00H
0049 EA                MOV     A,R2
004A 6480              XRL     A,#080H
C51 COMPILER V9.60.0.0   LCDDRIVER                                                         05/03/2021 21:31:15 PAGE 38  

004C 9480              SUBB    A,#080H
004E 50D6              JNC     ?C0009
                                           ; SOURCE LINE # 39
0050 C3                CLR     C
0051 900000      R     MOV     DPTR,#isNegative
0054 E0                MOVX    A,@DPTR
0055 6480              XRL     A,#080H
0057 9480              SUBB    A,#080H
0059 5012              JNC     ?C0010
                                           ; SOURCE LINE # 40
                                           ; SOURCE LINE # 41
005B 120000      R     LCALL   L?0175
005E FE                MOV     R6,A
005F 7400        R     MOV     A,#LOW s
0061 25F0              ADD     A,B
0063 F582              MOV     DPL,A
0065 7400        R     MOV     A,#HIGH s
0067 3E                ADDC    A,R6
0068 F583              MOV     DPH,A
006A 742D              MOV     A,#02DH
006C F0                MOVX    @DPTR,A
                                           ; SOURCE LINE # 42
006D         ?C0010:
                                           ; SOURCE LINE # 43
006D 900000      R     MOV     DPTR,#i
0070 E0                MOVX    A,@DPTR
0071 FE                MOV     R6,A
0072 A3                INC     DPTR
0073 E0                MOVX    A,@DPTR
0074 2400        R     ADD     A,#LOW s
0076 F582              MOV     DPL,A
0078 7400        R     MOV     A,#HIGH s
007A 3E                ADDC    A,R6
007B F583              MOV     DPH,A
007D E4                CLR     A
007E F0                MOVX    @DPTR,A
                                           ; SOURCE LINE # 44
007F 7B01              MOV     R3,#01H
0081 7A00        R     MOV     R2,#HIGH s
0083 7900        R     MOV     R1,#LOW s
0085 020000      R     LJMP    _reverse
             ; FUNCTION _itoa (END)

             ; FUNCTION _LCD_ShowString (BEGIN)
                                           ; SOURCE LINE # 47
0000 900000      R     MOV     DPTR,#x
0003 120000      R     LCALL   L?0145
0006 120000      R     LCALL   L?0173
0009         ?C0012:
                                           ; SOURCE LINE # 48
0009 900000      R     MOV     DPTR,#p
000C 120000      R     LCALL   L?0158
000F 120000      E     LCALL   ?C?CLDPTR
0012 FF                MOV     R7,A
0013 33                RLC     A
0014 95E0              SUBB    A,ACC
0016 FE                MOV     R6,A
0017 D3                SETB    C
0018 EF                MOV     A,R7
0019 947E              SUBB    A,#07EH
001B EE                MOV     A,R6
001C 6480              XRL     A,#080H
C51 COMPILER V9.60.0.0   LCDDRIVER                                                         05/03/2021 21:31:15 PAGE 39  

001E 9480              SUBB    A,#080H
0020 5070              JNC     ?C0014
0022 C3                CLR     C
0023 EF                MOV     A,R7
0024 9420              SUBB    A,#020H
0026 EE                MOV     A,R6
0027 6480              XRL     A,#080H
0029 9480              SUBB    A,#080H
002B 4065              JC      ?C0014
                                           ; SOURCE LINE # 49
                                           ; SOURCE LINE # 50
002D 900000      R     MOV     DPTR,#x
0030 120000      R     LCALL   L?0166
0033 120000      E     LCALL   ?C?CLDPTR
0036 900000      R     MOV     DPTR,#?_LCD_ShowChar?BYTE+06H
0039 F0                MOVX    @DPTR,A
003A 900000      R     MOV     DPTR,#mode
003D E0                MOVX    A,@DPTR
003E FB                MOV     R3,A
003F A3                INC     DPTR
0040 E0                MOVX    A,@DPTR
0041 900000      R     MOV     DPTR,#?_LCD_ShowChar?BYTE+07H
0044 CB                XCH     A,R3
0045 F0                MOVX    @DPTR,A
0046 A3                INC     DPTR
0047 EB                MOV     A,R3
0048 F0                MOVX    @DPTR,A
0049 900000      R     MOV     DPTR,#fgColor
004C E0                MOVX    A,@DPTR
004D FB                MOV     R3,A
004E A3                INC     DPTR
004F E0                MOVX    A,@DPTR
0050 900000      R     MOV     DPTR,#?_LCD_ShowChar?BYTE+09H
0053 CB                XCH     A,R3
0054 F0                MOVX    @DPTR,A
0055 A3                INC     DPTR
0056 EB                MOV     A,R3
0057 F0                MOVX    @DPTR,A
0058 900000      R     MOV     DPTR,#bgColor
005B E0                MOVX    A,@DPTR
005C FB                MOV     R3,A
005D A3                INC     DPTR
005E E0                MOVX    A,@DPTR
005F 900000      R     MOV     DPTR,#?_LCD_ShowChar?BYTE+0BH
0062 CB                XCH     A,R3
0063 F0                MOVX    @DPTR,A
0064 A3                INC     DPTR
0065 EB                MOV     A,R3
0066 F0                MOVX    @DPTR,A
0067 900000      R     MOV     DPTR,#fontSize
006A E0                MOVX    A,@DPTR
006B FA                MOV     R2,A
006C A3                INC     DPTR
006D E0                MOVX    A,@DPTR
006E FB                MOV     R3,A
006F 120000      R     LCALL   _LCD_ShowChar
                                           ; SOURCE LINE # 51
0072 900000      R     MOV     DPTR,#fontSize
0075 E0                MOVX    A,@DPTR
0076 FE                MOV     R6,A
0077 A3                INC     DPTR
0078 E0                MOVX    A,@DPTR
C51 COMPILER V9.60.0.0   LCDDRIVER                                                         05/03/2021 21:31:15 PAGE 40  

0079 FF                MOV     R7,A
007A 120000      R     LCALL   L?0192
007D 900000      R     MOV     DPTR,#x+01H
0080 E0                MOVX    A,@DPTR
0081 2F                ADD     A,R7
0082 F0                MOVX    @DPTR,A
0083 900000      R     MOV     DPTR,#x
0086 E0                MOVX    A,@DPTR
0087 3E                ADDC    A,R6
0088 F0                MOVX    @DPTR,A
                                           ; SOURCE LINE # 52
0089 900000      R     MOV     DPTR,#p+01H
008C 120000      R     LCALL   L?0196
                                           ; SOURCE LINE # 53
008F 020000      R     LJMP    ?C0012
                                           ; SOURCE LINE # 54
0092         ?C0014:
0092 22                RET     
             ; FUNCTION _LCD_ShowString (END)

             ; FUNCTION _LCD_ShowChar (BEGIN)
                                           ; SOURCE LINE # 55
0000 900000      R     MOV     DPTR,#x
0003 120000      R     LCALL   L?0145
0006 A3                INC     DPTR
0007 EA                MOV     A,R2
0008 F0                MOVX    @DPTR,A
0009 FE                MOV     R6,A
000A A3                INC     DPTR
000B EB                MOV     A,R3
000C F0                MOVX    @DPTR,A
000D FF                MOV     R7,A
                                           ; SOURCE LINE # 59
000E A3                INC     DPTR
000F E0                MOVX    A,@DPTR
0010 24E0              ADD     A,#0E0H
0012 F0                MOVX    @DPTR,A
                                           ; SOURCE LINE # 60
0013 120000      R     LCALL   L?0192
0016 AC06              MOV     R4,AR6
0018 AD07              MOV     R5,AR7
001A 900000      R     MOV     DPTR,#x
001D E0                MOVX    A,@DPTR
001E FE                MOV     R6,A
001F A3                INC     DPTR
0020 E0                MOVX    A,@DPTR
0021 FF                MOV     R7,A
0022 2D                ADD     A,R5
0023 FD                MOV     R5,A
0024 EE                MOV     A,R6
0025 3C                ADDC    A,R4
0026 CD                XCH     A,R5
0027 24FF              ADD     A,#0FFH
0029 FB                MOV     R3,A
002A ED                MOV     A,R5
002B 34FF              ADDC    A,#0FFH
002D FA                MOV     R2,A
002E C002              PUSH    AR2
0030 C003              PUSH    AR3
0032 C006              PUSH    AR6
0034 120000      R     LCALL   L?0167
0037 A3                INC     DPTR
C51 COMPILER V9.60.0.0   LCDDRIVER                                                         05/03/2021 21:31:15 PAGE 41  

0038 E0                MOVX    A,@DPTR
0039 FA                MOV     R2,A
003A A3                INC     DPTR
003B E0                MOVX    A,@DPTR
003C FB                MOV     R3,A
003D 900000      R     MOV     DPTR,#y
0040 E0                MOVX    A,@DPTR
0041 F8                MOV     R0,A
0042 A3                INC     DPTR
0043 E0                MOVX    A,@DPTR
0044 2B                ADD     A,R3
0045 FB                MOV     R3,A
0046 E8                MOV     A,R0
0047 3A                ADDC    A,R2
0048 CB                XCH     A,R3
0049 24FF              ADD     A,#0FFH
004B FE                MOV     R6,A
004C EB                MOV     A,R3
004D 34FF              ADDC    A,#0FFH
004F 900000      R     MOV     DPTR,#?_LCD_SetRegion?BYTE+06H
0052 F0                MOVX    @DPTR,A
0053 A3                INC     DPTR
0054 CE                XCH     A,R6
0055 F0                MOVX    @DPTR,A
0056 D006              POP     AR6
0058 D003              POP     AR3
005A D002              POP     AR2
005C 120000      R     LCALL   _LCD_SetRegion
                                           ; SOURCE LINE # 61
005F 900000      R     MOV     DPTR,#mode
0062 E0                MOVX    A,@DPTR
0063 7002              JNZ     ?C0114
0065 A3                INC     DPTR
0066 E0                MOVX    A,@DPTR
0067         ?C0114:
0067 7076              JNZ     ?C0015
                                           ; SOURCE LINE # 62
                                           ; SOURCE LINE # 64
0069 120000      R     LCALL   L?0197
006C         ?C0016:
006C 900000      R     MOV     DPTR,#fontSize
006F E0                MOVX    A,@DPTR
0070 FE                MOV     R6,A
0071 A3                INC     DPTR
0072 E0                MOVX    A,@DPTR
0073 FF                MOV     R7,A
0074 900000      R     MOV     DPTR,#pos
0077 120000      R     LCALL   L?0139
007A 4003              JC      $ + 5H
007C 020000      R     LJMP    ?C0029
                                           ; SOURCE LINE # 65
                                           ; SOURCE LINE # 66
007F EF                MOV     A,R7
0080 6410              XRL     A,#010H
0082 4E                ORL     A,R6
0083 7005              JNZ     ?C0019
                                           ; SOURCE LINE # 67
0085 120000      R     LCALL   L?0160
0088 8012              SJMP    ?C0134
008A         ?C0019:
                                           ; SOURCE LINE # 68
008A 900000      R     MOV     DPTR,#fontSize
C51 COMPILER V9.60.0.0   LCDDRIVER                                                         05/03/2021 21:31:15 PAGE 42  

008D E0                MOVX    A,@DPTR
008E 7004              JNZ     ?C0115
0090 A3                INC     DPTR
0091 E0                MOVX    A,@DPTR
0092 6418              XRL     A,#018H
0094         ?C0115:
0094 6003              JZ      $ + 5H
0096 020000      R     LJMP    ?C0023
0099 120000      R     LCALL   L?0163
009C         ?C0134:
009C 120000      R     LCALL   L?0150
009F         ?C0020:
                                           ; SOURCE LINE # 70
009F 120000      R     LCALL   L?0194
00A2         ?C0024:
00A2 7D02              MOV     R5,#02H
00A4 120000      R     LCALL   L?0162
00A7 C3                CLR     C
00A8 900000      R     MOV     DPTR,#t+01H
00AB E0                MOVX    A,@DPTR
00AC 900000      R     MOV     DPTR,#t
00AF 120000      R     LCALL   L?0199
00B2 5021              JNC     ?C0018
                                           ; SOURCE LINE # 71
                                           ; SOURCE LINE # 72
00B4 900000      R     MOV     DPTR,#temp+01H
00B7 E0                MOVX    A,@DPTR
00B8 30E005            JNB     ACC.0,?C0027
00BB 900000      R     MOV     DPTR,#fgColor
00BE 8003              SJMP    ?C0133
00C0         ?C0027:
                                           ; SOURCE LINE # 73
00C0 900000      R     MOV     DPTR,#bgColor
00C3         ?C0133:
00C3 E0                MOVX    A,@DPTR
00C4 FE                MOV     R6,A
00C5 A3                INC     DPTR
00C6 E0                MOVX    A,@DPTR
00C7 FF                MOV     R7,A
00C8 120000      R     LCALL   _LCD_WriteData_16Bit
00CB         ?C0028:
                                           ; SOURCE LINE # 74
                                           ; SOURCE LINE # 75
00CB 120000      R     LCALL   L?0155
00CE 70D2              JNZ     ?C0024
00D0 120000      R     LCALL   L?0200
00D3         ?C0116:
00D3 80CD              SJMP    ?C0024
                                           ; SOURCE LINE # 77
00D5         ?C0018:
00D5 120000      R     LCALL   L?0202
00D8 7003              JNZ     ?C0117
00DA 120000      R     LCALL   L?0204
00DD         ?C0117:
00DD 808D              SJMP    ?C0016
                                           ; SOURCE LINE # 78
00DF         ?C0015:
                                           ; SOURCE LINE # 79
                                           ; SOURCE LINE # 80
00DF 7D08              MOV     R5,#08H
00E1 120000      R     LCALL   L?0162
00E4 120000      R     LCALL   L?0193
C51 COMPILER V9.60.0.0   LCDDRIVER                                                         05/03/2021 21:31:15 PAGE 43  

00E7 ED                MOV     A,R5
00E8 4C                ORL     A,R4
00E9 7054              JNZ     ?C0030
                                           ; SOURCE LINE # 81
00EB 120000      R     LCALL   L?0197
00EE         ?C0031:
00EE 120000      R     LCALL   L?0161
00F1 7D08              MOV     R5,#08H
00F3 120000      E     LCALL   ?C?SIDIV
00F6 900000      R     MOV     DPTR,#pos
00F9 120000      R     LCALL   L?0139
00FC 4003              JC      $ + 5H
00FE 020000      R     LJMP    ?C0029
                                           ; SOURCE LINE # 82
0101 900000      R     MOV     DPTR,#fontSize
0104 E0                MOVX    A,@DPTR
0105 7004              JNZ     ?C0118
0107 A3                INC     DPTR
0108 E0                MOVX    A,@DPTR
0109 6410              XRL     A,#010H
010B         ?C0118:
010B 6003              JZ      $ + 5H
010D 020000      R     LJMP    ?C0023
                                           ; SOURCE LINE # 83
0110 120000      R     LCALL   L?0160
0113 120000      R     LCALL   L?0150
                                           ; SOURCE LINE # 85
0116 120000      R     LCALL   L?0194
0119         ?C0036:
0119 120000      R     LCALL   L?0138
011C 5017              JNC     ?C0033
                                           ; SOURCE LINE # 86
011E 900000      R     MOV     DPTR,#temp+01H
0121 E0                MOVX    A,@DPTR
0122 30E006            JNB     ACC.0,?C0039
0125 120000      R     LCALL   L?0147
0128 120000      R     LCALL   _LCD_DrawPoint
012B         ?C0039:
                                           ; SOURCE LINE # 87
                                           ; SOURCE LINE # 88
012B 120000      R     LCALL   L?0155
012E 70E9              JNZ     ?C0036
0130 120000      R     LCALL   L?0200
0133         ?C0119:
0133 80E4              SJMP    ?C0036
                                           ; SOURCE LINE # 89
0135         ?C0033:
0135 120000      R     LCALL   L?0202
0138 7003              JNZ     ?C0120
013A 120000      R     LCALL   L?0204
013D         ?C0120:
013D 80AF              SJMP    ?C0031
                                           ; SOURCE LINE # 90
013F         ?C0030:
                                           ; SOURCE LINE # 91
                                           ; SOURCE LINE # 93
013F E4                CLR     A
0140 120000      R     LCALL   L?0198
0143         ?C0041:
0143 120000      R     LCALL   L?0161
0146 7D06              MOV     R5,#06H
0148 120000      E     LCALL   ?C?SIDIV
C51 COMPILER V9.60.0.0   LCDDRIVER                                                         05/03/2021 21:31:15 PAGE 44  

014B 900000      R     MOV     DPTR,#pos
014E 120000      R     LCALL   L?0139
0151 503B              JNC     ?C0029
                                           ; SOURCE LINE # 97
0153 900000      R     MOV     DPTR,#fontSize
0156 E0                MOVX    A,@DPTR
0157 7004              JNZ     ?C0121
0159 A3                INC     DPTR
015A E0                MOVX    A,@DPTR
015B 6418              XRL     A,#018H
015D         ?C0121:
015D 7044              JNZ     ?C0023
015F 120000      R     LCALL   L?0163
0162 120000      R     LCALL   L?0151
                                           ; SOURCE LINE # 99
0165 120000      R     LCALL   L?0195
0168         ?C0046:
0168 120000      R     LCALL   L?0138
016B 5017              JNC     ?C0043
                                           ; SOURCE LINE # 100
016D 900000      R     MOV     DPTR,#temp+01H
0170 E0                MOVX    A,@DPTR
0171 30E006            JNB     ACC.0,?C0049
0174 120000      R     LCALL   L?0147
0177 120000      R     LCALL   _LCD_DrawPoint
017A         ?C0049:
                                           ; SOURCE LINE # 101
                                           ; SOURCE LINE # 102
017A 120000      R     LCALL   L?0156
017D 70E9              JNZ     ?C0046
017F 120000      R     LCALL   L?0201
0182         ?C0122:
0182 80E4              SJMP    ?C0046
                                           ; SOURCE LINE # 103
0184         ?C0043:
0184 120000      R     LCALL   L?0203
0187 7003              JNZ     ?C0123
0189 120000      R     LCALL   L?0205
018C         ?C0123:
018C 80B5              SJMP    ?C0041
                                           ; SOURCE LINE # 104
                                           ; SOURCE LINE # 105
018E         ?C0029:
                                           ; SOURCE LINE # 107
018E 900000      R     MOV     DPTR,#?_LCD_SetRegion?BYTE+06H
0191 E4                CLR     A
0192 F0                MOVX    @DPTR,A
0193 A3                INC     DPTR
0194 74A0              MOV     A,#0A0H
0196 F0                MOVX    @DPTR,A
0197 7B80              MOV     R3,#080H
0199 7A00              MOV     R2,#00H
019B E4                CLR     A
019C FD                MOV     R5,A
019D FC                MOV     R4,A
019E FF                MOV     R7,A
019F FE                MOV     R6,A
01A0 120000      R     LCALL   _LCD_SetRegion
                                           ; SOURCE LINE # 111
01A3         ?C0023:
01A3 22                RET     
             ; FUNCTION _LCD_ShowChar (END)
C51 COMPILER V9.60.0.0   LCDDRIVER                                                         05/03/2021 21:31:15 PAGE 45  


             ; FUNCTION _delay_ms (BEGIN)
                                           ; SOURCE LINE # 112
;---- Variable 'time' assigned to Register 'R6/R7' ----
                                           ; SOURCE LINE # 114
;---- Variable 'i' assigned to Register 'R4/R5' ----
0000 E4                CLR     A
0001 FD                MOV     R5,A
0002 FC                MOV     R4,A
0003         ?C0050:
0003 C3                CLR     C
0004 ED                MOV     A,R5
0005 9F                SUBB    A,R7
0006 EC                MOV     A,R4
0007 9E                SUBB    A,R6
0008 5015              JNC     ?C0056
                                           ; SOURCE LINE # 115
;---- Variable 'j' assigned to Register 'R2/R3' ----
000A E4                CLR     A
000B FB                MOV     R3,A
000C FA                MOV     R2,A
000D         ?C0053:
000D 0B                INC     R3
000E BB0001            CJNE    R3,#00H,?C0124
0011 0A                INC     R2
0012         ?C0124:
0012 EB                MOV     A,R3
0013 64FA              XRL     A,#0FAH
0015 4A                ORL     A,R2
0016 70F5              JNZ     ?C0053
0018         ?C0052:
0018 0D                INC     R5
0019 BD0001            CJNE    R5,#00H,?C0125
001C 0C                INC     R4
001D         ?C0125:
001D 80E4              SJMP    ?C0050
                                           ; SOURCE LINE # 116
001F         ?C0056:
001F 22                RET     
             ; FUNCTION _delay_ms (END)

             ; FUNCTION _SPI_WriteData (BEGIN)
                                           ; SOURCE LINE # 117
;---- Variable 'Data' assigned to Register 'R7' ----
                                           ; SOURCE LINE # 118
;---- Variable 'i' assigned to Register 'R6' ----
                                           ; SOURCE LINE # 119
0000 7E08              MOV     R6,#08H
0002         ?C0057:
0002 EE                MOV     A,R6
0003 D3                SETB    C
0004 9400              SUBB    A,#00H
0006 7480              MOV     A,#080H
0008 9480              SUBB    A,#080H
000A 4015              JC      ?C0062
                                           ; SOURCE LINE # 120
000C EF                MOV     A,R7
000D 30E704            JNB     ACC.7,?C0060
                                           ; SOURCE LINE # 121
0010 D281              SETB    sda
0012 8002              SJMP    ?C0061
0014         ?C0060:
C51 COMPILER V9.60.0.0   LCDDRIVER                                                         05/03/2021 21:31:15 PAGE 46  

                                           ; SOURCE LINE # 122
0014 C281              CLR     sda
0016         ?C0061:
                                           ; SOURCE LINE # 123
0016 C280              CLR     scl
                                           ; SOURCE LINE # 124
0018 D280              SETB    scl
                                           ; SOURCE LINE # 125
001A EF                MOV     A,R7
001B 25E0              ADD     A,ACC
001D FF                MOV     R7,A
                                           ; SOURCE LINE # 126
001E 1E                DEC     R6
001F 80E1              SJMP    ?C0057
                                           ; SOURCE LINE # 127
0021         ?C0062:
0021 22                RET     
             ; FUNCTION _SPI_WriteData (END)

             ; FUNCTION _LCD_WriteIndex (BEGIN)
                                           ; SOURCE LINE # 128
;---- Variable 'Data' assigned to Register 'R7' ----
                                           ; SOURCE LINE # 129
0000 C2A1              CLR     cs
                                           ; SOURCE LINE # 130
0002 C2A0              CLR     rs
                                           ; SOURCE LINE # 131
0004 120000      R     LCALL   _SPI_WriteData
                                           ; SOURCE LINE # 132
0007 D2A1              SETB    cs
                                           ; SOURCE LINE # 133
0009 22                RET     
             ; FUNCTION _LCD_WriteIndex (END)

             ; FUNCTION _LCD_WriteData (BEGIN)
                                           ; SOURCE LINE # 134
;---- Variable 'Data' assigned to Register 'R7' ----
                                           ; SOURCE LINE # 135
0000 E4                CLR     A
0001 900000      R     MOV     DPTR,#i
0004 F0                MOVX    @DPTR,A
                                           ; SOURCE LINE # 136
0005 C2A1              CLR     cs
                                           ; SOURCE LINE # 137
0007 D2A0              SETB    rs
                                           ; SOURCE LINE # 138
0009 120000      R     LCALL   _SPI_WriteData
                                           ; SOURCE LINE # 139
000C D2A1              SETB    cs
                                           ; SOURCE LINE # 140
000E 22                RET     
             ; FUNCTION _LCD_WriteData (END)

             ; FUNCTION _LCD_WriteData_16Bit (BEGIN)
                                           ; SOURCE LINE # 142
;---- Variable 'Data' assigned to Register 'R4/R5' ----
0000 AD07              MOV     R5,AR7
0002 AC06              MOV     R4,AR6
                                           ; SOURCE LINE # 143
0004 E4                CLR     A
0005 900000      R     MOV     DPTR,#i
0008 F0                MOVX    @DPTR,A
C51 COMPILER V9.60.0.0   LCDDRIVER                                                         05/03/2021 21:31:15 PAGE 47  

                                           ; SOURCE LINE # 144
0009 C2A1              CLR     cs
                                           ; SOURCE LINE # 145
000B D2A0              SETB    rs
                                           ; SOURCE LINE # 146
000D EC                MOV     A,R4
000E FF                MOV     R7,A
000F 120000      R     LCALL   _SPI_WriteData
                                           ; SOURCE LINE # 147
0012 AF05              MOV     R7,AR5
0014 120000      R     LCALL   _SPI_WriteData
                                           ; SOURCE LINE # 148
0017 D2A1              SETB    cs
                                           ; SOURCE LINE # 149
0019 22                RET     
             ; FUNCTION _LCD_WriteData_16Bit (END)

             ; FUNCTION LCD_Reset (BEGIN)
                                           ; SOURCE LINE # 151
                                           ; SOURCE LINE # 152
0000 C290              CLR     reset
                                           ; SOURCE LINE # 153
0002 7F64              MOV     R7,#064H
0004 7E00              MOV     R6,#00H
0006 120000      R     LCALL   _delay_ms
                                           ; SOURCE LINE # 154
0009 D290              SETB    reset
                                           ; SOURCE LINE # 155
000B 020000      R     LJMP    _delay_ms
             ; FUNCTION LCD_Reset (END)

             ; FUNCTION LCD_Init (BEGIN)
                                           ; SOURCE LINE # 158
                                           ; SOURCE LINE # 159
0000 120000      R     LCALL   LCD_Reset
                                           ; SOURCE LINE # 160
0003 7F11              MOV     R7,#011H
0005 120000      R     LCALL   _LCD_WriteIndex
                                           ; SOURCE LINE # 161
0008 7F78              MOV     R7,#078H
000A 7E00              MOV     R6,#00H
000C 120000      R     LCALL   _delay_ms
                                           ; SOURCE LINE # 162
000F 7FB1              MOV     R7,#0B1H
                                           ; SOURCE LINE # 163
                                           ; SOURCE LINE # 164
                                           ; SOURCE LINE # 165
0011 120000      R     LCALL   L?0149
                                           ; SOURCE LINE # 166
0014 7FB2              MOV     R7,#0B2H
                                           ; SOURCE LINE # 167
                                           ; SOURCE LINE # 168
                                           ; SOURCE LINE # 169
0016 120000      R     LCALL   L?0149
                                           ; SOURCE LINE # 170
0019 7FB3              MOV     R7,#0B3H
001B 120000      R     LCALL   _LCD_WriteIndex
                                           ; SOURCE LINE # 171
                                           ; SOURCE LINE # 172
001E 120000      R     LCALL   L?0174
                                           ; SOURCE LINE # 173
0021 7F2D              MOV     R7,#02DH
C51 COMPILER V9.60.0.0   LCDDRIVER                                                         05/03/2021 21:31:15 PAGE 48  

0023 120000      R     LCALL   _LCD_WriteData
                                           ; SOURCE LINE # 174
                                           ; SOURCE LINE # 175
0026 120000      R     LCALL   L?0174
                                           ; SOURCE LINE # 176
0029 7F2D              MOV     R7,#02DH
002B 120000      R     LCALL   _LCD_WriteData
                                           ; SOURCE LINE # 177
002E 7FB4              MOV     R7,#0B4H
0030 120000      R     LCALL   _LCD_WriteIndex
                                           ; SOURCE LINE # 178
0033 7F07              MOV     R7,#07H
0035 120000      R     LCALL   _LCD_WriteData
                                           ; SOURCE LINE # 179
0038 7FC0              MOV     R7,#0C0H
003A 120000      R     LCALL   _LCD_WriteIndex
                                           ; SOURCE LINE # 180
003D 7FA2              MOV     R7,#0A2H
                                           ; SOURCE LINE # 181
003F 120000      R     LCALL   L?0186
                                           ; SOURCE LINE # 182
0042 7F84              MOV     R7,#084H
0044 120000      R     LCALL   _LCD_WriteData
                                           ; SOURCE LINE # 183
0047 7FC1              MOV     R7,#0C1H
0049 120000      R     LCALL   _LCD_WriteIndex
                                           ; SOURCE LINE # 184
004C 7FC5              MOV     R7,#0C5H
004E 120000      R     LCALL   _LCD_WriteData
                                           ; SOURCE LINE # 185
0051 7FC2              MOV     R7,#0C2H
0053 120000      R     LCALL   _LCD_WriteIndex
                                           ; SOURCE LINE # 186
0056 7F0A              MOV     R7,#0AH
                                           ; SOURCE LINE # 187
0058 120000      R     LCALL   L?0164
                                           ; SOURCE LINE # 188
005B 7FC3              MOV     R7,#0C3H
005D 120000      R     LCALL   _LCD_WriteIndex
                                           ; SOURCE LINE # 189
0060 7F8A              MOV     R7,#08AH
0062 120000      R     LCALL   _LCD_WriteData
                                           ; SOURCE LINE # 190
0065 7F2A              MOV     R7,#02AH
0067 120000      R     LCALL   _LCD_WriteData
                                           ; SOURCE LINE # 191
006A 7FC4              MOV     R7,#0C4H
006C 120000      R     LCALL   _LCD_WriteIndex
                                           ; SOURCE LINE # 192
006F 7F8A              MOV     R7,#08AH
0071 120000      R     LCALL   _LCD_WriteData
                                           ; SOURCE LINE # 193
0074 7FEE              MOV     R7,#0EEH
0076 120000      R     LCALL   _LCD_WriteData
                                           ; SOURCE LINE # 194
0079 7FC5              MOV     R7,#0C5H
007B 120000      R     LCALL   _LCD_WriteIndex
                                           ; SOURCE LINE # 195
007E 7F0E              MOV     R7,#0EH
0080 120000      R     LCALL   _LCD_WriteData
                                           ; SOURCE LINE # 196
0083 7F36              MOV     R7,#036H
C51 COMPILER V9.60.0.0   LCDDRIVER                                                         05/03/2021 21:31:15 PAGE 49  

0085 120000      R     LCALL   _LCD_WriteIndex
                                           ; SOURCE LINE # 198
0088 7FA8              MOV     R7,#0A8H
008A 120000      R     LCALL   _LCD_WriteData
                                           ; SOURCE LINE # 202
008D 7FE0              MOV     R7,#0E0H
008F 120000      R     LCALL   _LCD_WriteIndex
                                           ; SOURCE LINE # 203
0092 7F0F              MOV     R7,#0FH
0094 120000      R     LCALL   _LCD_WriteData
                                           ; SOURCE LINE # 204
0097 7F1A              MOV     R7,#01AH
0099 120000      R     LCALL   _LCD_WriteData
                                           ; SOURCE LINE # 205
009C 7F0F              MOV     R7,#0FH
009E 120000      R     LCALL   _LCD_WriteData
                                           ; SOURCE LINE # 206
00A1 7F18              MOV     R7,#018H
00A3 120000      R     LCALL   _LCD_WriteData
                                           ; SOURCE LINE # 207
00A6 7F2F              MOV     R7,#02FH
00A8 120000      R     LCALL   _LCD_WriteData
                                           ; SOURCE LINE # 208
00AB 7F28              MOV     R7,#028H
00AD 120000      R     LCALL   _LCD_WriteData
                                           ; SOURCE LINE # 209
00B0 7F20              MOV     R7,#020H
00B2 120000      R     LCALL   _LCD_WriteData
                                           ; SOURCE LINE # 210
00B5 7F22              MOV     R7,#022H
00B7 120000      R     LCALL   _LCD_WriteData
                                           ; SOURCE LINE # 211
00BA 7F1F              MOV     R7,#01FH
00BC 120000      R     LCALL   _LCD_WriteData
                                           ; SOURCE LINE # 212
00BF 7F1B              MOV     R7,#01BH
00C1 120000      R     LCALL   _LCD_WriteData
                                           ; SOURCE LINE # 213
00C4 7F23              MOV     R7,#023H
00C6 120000      R     LCALL   _LCD_WriteData
                                           ; SOURCE LINE # 214
00C9 7F37              MOV     R7,#037H
                                           ; SOURCE LINE # 215
00CB 120000      R     LCALL   L?0164
                                           ; SOURCE LINE # 216
00CE 7F07              MOV     R7,#07H
                                           ; SOURCE LINE # 217
00D0 120000      R     LCALL   L?0186
                                           ; SOURCE LINE # 218
00D3 7F10              MOV     R7,#010H
00D5 120000      R     LCALL   _LCD_WriteData
                                           ; SOURCE LINE # 219
00D8 7FE1              MOV     R7,#0E1H
00DA 120000      R     LCALL   _LCD_WriteIndex
                                           ; SOURCE LINE # 220
00DD 7F0F              MOV     R7,#0FH
00DF 120000      R     LCALL   _LCD_WriteData
                                           ; SOURCE LINE # 221
00E2 7F1B              MOV     R7,#01BH
00E4 120000      R     LCALL   _LCD_WriteData
                                           ; SOURCE LINE # 222
00E7 7F0F              MOV     R7,#0FH
C51 COMPILER V9.60.0.0   LCDDRIVER                                                         05/03/2021 21:31:15 PAGE 50  

00E9 120000      R     LCALL   _LCD_WriteData
                                           ; SOURCE LINE # 223
00EC 7F17              MOV     R7,#017H
00EE 120000      R     LCALL   _LCD_WriteData
                                           ; SOURCE LINE # 224
00F1 7F33              MOV     R7,#033H
00F3 120000      R     LCALL   _LCD_WriteData
                                           ; SOURCE LINE # 225
00F6 7F2C              MOV     R7,#02CH
00F8 120000      R     LCALL   _LCD_WriteData
                                           ; SOURCE LINE # 226
00FB 7F29              MOV     R7,#029H
00FD 120000      R     LCALL   _LCD_WriteData
                                           ; SOURCE LINE # 227
0100 7F2E              MOV     R7,#02EH
0102 120000      R     LCALL   _LCD_WriteData
                                           ; SOURCE LINE # 228
0105 7F30              MOV     R7,#030H
0107 120000      R     LCALL   _LCD_WriteData
                                           ; SOURCE LINE # 229
010A 7F30              MOV     R7,#030H
010C 120000      R     LCALL   _LCD_WriteData
                                           ; SOURCE LINE # 230
010F 7F39              MOV     R7,#039H
0111 120000      R     LCALL   _LCD_WriteData
                                           ; SOURCE LINE # 231
0114 7F3F              MOV     R7,#03FH
                                           ; SOURCE LINE # 232
0116 120000      R     LCALL   L?0187
                                           ; SOURCE LINE # 233
0119 7F07              MOV     R7,#07H
011B 120000      R     LCALL   _LCD_WriteData
                                           ; SOURCE LINE # 234
011E 7F03              MOV     R7,#03H
0120 120000      R     LCALL   _LCD_WriteData
                                           ; SOURCE LINE # 235
0123 7F10              MOV     R7,#010H
0125 120000      R     LCALL   _LCD_WriteData
                                           ; SOURCE LINE # 236
0128 7F2A              MOV     R7,#02AH
                                           ; SOURCE LINE # 237
012A 120000      R     LCALL   L?0188
                                           ; SOURCE LINE # 238
012D 7F02              MOV     R7,#02H
                                           ; SOURCE LINE # 239
012F 120000      R     LCALL   L?0187
                                           ; SOURCE LINE # 240
0132 7F82              MOV     R7,#082H
0134 120000      R     LCALL   _LCD_WriteData
                                           ; SOURCE LINE # 241
0137 7F2B              MOV     R7,#02BH
                                           ; SOURCE LINE # 242
0139 120000      R     LCALL   L?0188
                                           ; SOURCE LINE # 243
013C 7F03              MOV     R7,#03H
013E 120000      R     LCALL   _LCD_WriteData
                                           ; SOURCE LINE # 244
0141 E4                CLR     A
0142 FF                MOV     R7,A
0143 120000      R     LCALL   _LCD_WriteData
                                           ; SOURCE LINE # 245
0146 7F83              MOV     R7,#083H
C51 COMPILER V9.60.0.0   LCDDRIVER                                                         05/03/2021 21:31:15 PAGE 51  

0148 120000      R     LCALL   _LCD_WriteData
                                           ; SOURCE LINE # 246
014B 7FF0              MOV     R7,#0F0H
014D 120000      R     LCALL   _LCD_WriteIndex
                                           ; SOURCE LINE # 247
0150 7F01              MOV     R7,#01H
0152 120000      R     LCALL   _LCD_WriteData
                                           ; SOURCE LINE # 248
0155 7FF6              MOV     R7,#0F6H
0157 120000      R     LCALL   _LCD_WriteIndex
                                           ; SOURCE LINE # 249
015A E4                CLR     A
015B FF                MOV     R7,A
015C 120000      R     LCALL   _LCD_WriteData
                                           ; SOURCE LINE # 250
015F 7F3A              MOV     R7,#03AH
0161 120000      R     LCALL   _LCD_WriteIndex
                                           ; SOURCE LINE # 251
0164 7F05              MOV     R7,#05H
0166 120000      R     LCALL   _LCD_WriteData
                                           ; SOURCE LINE # 252
0169 7F29              MOV     R7,#029H
016B 020000      R     LJMP    _LCD_WriteIndex
                                           ; SOURCE LINE # 253
016E         L?0149:
016E 120000      R     LCALL   _LCD_WriteIndex
0171 7F01              MOV     R7,#01H
0173 120000      R     LCALL   _LCD_WriteData
0176 7F2C              MOV     R7,#02CH
0178 120000      R     LCALL   _LCD_WriteData
017B 7F2D              MOV     R7,#02DH
017D 120000      R     LCALL   _LCD_WriteData
0180 22                RET     
0181         L?0164:
0181 120000      R     LCALL   _LCD_WriteData
0184 E4                CLR     A
0185 FF                MOV     R7,A
0186 120000      R     LCALL   _LCD_WriteData
0189 22                RET     
018A         L?0174:
018A 7F01              MOV     R7,#01H
018C 120000      R     LCALL   _LCD_WriteData
018F 7F2C              MOV     R7,#02CH
0191 120000      R     LCALL   _LCD_WriteData
0194 22                RET     
0195         L?0186:
0195 120000      R     LCALL   _LCD_WriteData
0198 7F02              MOV     R7,#02H
019A 120000      R     LCALL   _LCD_WriteData
019D 22                RET     
019E         L?0187:
019E 120000      R     LCALL   _LCD_WriteData
01A1 E4                CLR     A
01A2 FF                MOV     R7,A
01A3 120000      R     LCALL   _LCD_WriteData
01A6 22                RET     
01A7         L?0188:
01A7 120000      R     LCALL   _LCD_WriteIndex
01AA E4                CLR     A
01AB FF                MOV     R7,A
01AC 120000      R     LCALL   _LCD_WriteData
01AF 22                RET     
C51 COMPILER V9.60.0.0   LCDDRIVER                                                         05/03/2021 21:31:15 PAGE 52  

             ; FUNCTION LCD_Init (END)

             ; FUNCTION _LCD_SetRegion (BEGIN)
                                           ; SOURCE LINE # 254
0000 900000      R     MOV     DPTR,#startX
0003 EE                MOV     A,R6
0004 F0                MOVX    @DPTR,A
0005 A3                INC     DPTR
0006 EF                MOV     A,R7
0007 F0                MOVX    @DPTR,A
;---- Variable 'endX' assigned to Register 'R2/R3' ----
;---- Variable 'startY' assigned to Register 'R4/R5' ----
                                           ; SOURCE LINE # 256
0008 7F2A              MOV     R7,#02AH
000A 120000      R     LCALL   _LCD_WriteIndex
                                           ; SOURCE LINE # 257
000D E4                CLR     A
000E FF                MOV     R7,A
000F 120000      R     LCALL   _LCD_WriteData
                                           ; SOURCE LINE # 258
0012 900000      R     MOV     DPTR,#startX
0015 A3                INC     DPTR
0016 E0                MOVX    A,@DPTR
0017 FF                MOV     R7,A
0018 120000      R     LCALL   _LCD_WriteData
                                           ; SOURCE LINE # 259
001B E4                CLR     A
001C FF                MOV     R7,A
001D 120000      R     LCALL   _LCD_WriteData
                                           ; SOURCE LINE # 260
0020 AF03              MOV     R7,AR3
0022 120000      R     LCALL   _LCD_WriteData
                                           ; SOURCE LINE # 262
0025 7F2B              MOV     R7,#02BH
0027 120000      R     LCALL   _LCD_WriteIndex
                                           ; SOURCE LINE # 263
002A E4                CLR     A
002B FF                MOV     R7,A
002C 120000      R     LCALL   _LCD_WriteData
                                           ; SOURCE LINE # 264
002F AF05              MOV     R7,AR5
0031 120000      R     LCALL   _LCD_WriteData
                                           ; SOURCE LINE # 265
0034 E4                CLR     A
0035 FF                MOV     R7,A
0036 120000      R     LCALL   _LCD_WriteData
                                           ; SOURCE LINE # 266
0039 900000      R     MOV     DPTR,#endY
003C A3                INC     DPTR
003D E0                MOVX    A,@DPTR
003E FF                MOV     R7,A
003F 120000      R     LCALL   _LCD_WriteData
                                           ; SOURCE LINE # 281
0042 7F2C              MOV     R7,#02CH
0044 020000      R     LJMP    _LCD_WriteIndex
             ; FUNCTION _LCD_SetRegion (END)

             ; FUNCTION _putPixel (BEGIN)
                                           ; SOURCE LINE # 283
0000 900000      R     MOV     DPTR,#x
0003 EE                MOV     A,R6
0004 F0                MOVX    @DPTR,A
C51 COMPILER V9.60.0.0   LCDDRIVER                                                         05/03/2021 21:31:15 PAGE 53  

0005 A3                INC     DPTR
0006 EF                MOV     A,R7
0007 F0                MOVX    @DPTR,A
0008 900000      R     MOV     DPTR,#color
000B EA                MOV     A,R2
000C F0                MOVX    @DPTR,A
000D A3                INC     DPTR
000E EB                MOV     A,R3
000F F0                MOVX    @DPTR,A
0010 900000      R     MOV     DPTR,#y
0013 EC                MOV     A,R4
0014 F0                MOVX    @DPTR,A
0015 A3                INC     DPTR
0016 ED                MOV     A,R5
0017 F0                MOVX    @DPTR,A
                                           ; SOURCE LINE # 284
0018 900000      R     MOV     DPTR,#x
001B E0                MOVX    A,@DPTR
001C FA                MOV     R2,A
001D A3                INC     DPTR
001E E0                MOVX    A,@DPTR
001F FF                MOV     R7,A
0020 AE02              MOV     R6,AR2
0022 C006              PUSH    AR6
0024 C007              PUSH    AR7
0026 2401              ADD     A,#01H
0028 FB                MOV     R3,A
0029 E4                CLR     A
002A 3A                ADDC    A,R2
002B FA                MOV     R2,A
002C A3                INC     DPTR
002D E0                MOVX    A,@DPTR
002E FE                MOV     R6,A
002F A3                INC     DPTR
0030 E0                MOVX    A,@DPTR
0031 2401              ADD     A,#01H
0033 FF                MOV     R7,A
0034 E4                CLR     A
0035 3E                ADDC    A,R6
0036 120000      R     LCALL   L?0178
0039 D007              POP     AR7
003B D006              POP     AR6
003D 120000      R     LCALL   _LCD_SetRegion
                                           ; SOURCE LINE # 285
0040 900000      R     MOV     DPTR,#color
0043 E0                MOVX    A,@DPTR
0044 FE                MOV     R6,A
0045 A3                INC     DPTR
0046 E0                MOVX    A,@DPTR
0047 FF                MOV     R7,A
0048 020000      R     LJMP    _LCD_WriteData_16Bit
             ; FUNCTION _putPixel (END)

             ; FUNCTION _displaySingleColour (BEGIN)
                                           ; SOURCE LINE # 287
0000 900000      R     MOV     DPTR,#color
0003 EE                MOV     A,R6
0004 F0                MOVX    @DPTR,A
0005 A3                INC     DPTR
0006 EF                MOV     A,R7
0007 F0                MOVX    @DPTR,A
                                           ; SOURCE LINE # 295
C51 COMPILER V9.60.0.0   LCDDRIVER                                                         05/03/2021 21:31:15 PAGE 54  

0008 900000      R     MOV     DPTR,#?_LCD_SetRegion?BYTE+06H
000B E4                CLR     A
000C F0                MOVX    @DPTR,A
000D A3                INC     DPTR
000E 7480              MOV     A,#080H
0010 F0                MOVX    @DPTR,A
0011 7BA0              MOV     R3,#0A0H
0013 7A00              MOV     R2,#00H
0015 E4                CLR     A
0016 FD                MOV     R5,A
0017 FC                MOV     R4,A
0018 FF                MOV     R7,A
0019 FE                MOV     R6,A
001A 120000      R     LCALL   _LCD_SetRegion
                                           ; SOURCE LINE # 296
;---- Variable 'i' assigned to Register 'R3' ----
001D E4                CLR     A
001E FB                MOV     R3,A
001F         ?C0070:
001F EB                MOV     A,R3
0020 C3                CLR     C
0021 94A0              SUBB    A,#0A0H
0023 7480              MOV     A,#080H
0025 9480              SUBB    A,#080H
0027 501D              JNC     ?C0076
                                           ; SOURCE LINE # 297
;---- Variable 'j' assigned to Register 'R2' ----
0029 E4                CLR     A
002A FA                MOV     R2,A
002B         ?C0073:
002B EA                MOV     A,R2
002C C3                CLR     C
002D 9480              SUBB    A,#080H
002F 7480              MOV     A,#080H
0031 9480              SUBB    A,#080H
0033 500E              JNC     ?C0072
                                           ; SOURCE LINE # 298
0035 900000      R     MOV     DPTR,#color
0038 E0                MOVX    A,@DPTR
0039 FE                MOV     R6,A
003A A3                INC     DPTR
003B E0                MOVX    A,@DPTR
003C FF                MOV     R7,A
003D 120000      R     LCALL   _LCD_WriteData_16Bit
0040 0A                INC     R2
0041 80E8              SJMP    ?C0073
0043         ?C0072:
0043 0B                INC     R3
0044 80D9              SJMP    ?C0070
                                           ; SOURCE LINE # 301
0046         ?C0076:
0046 22                RET     
             ; FUNCTION _displaySingleColour (END)

             ; FUNCTION _LCD_Fill (BEGIN)
                                           ; SOURCE LINE # 302
0000 900000      R     MOV     DPTR,#startX
0003 120000      R     LCALL   L?0146
0006 120000      R     LCALL   L?0173
                                           ; SOURCE LINE # 304
0009 C006              PUSH    AR6
000B C007              PUSH    AR7
C51 COMPILER V9.60.0.0   LCDDRIVER                                                         05/03/2021 21:31:15 PAGE 55  

000D 24FF              ADD     A,#0FFH
000F FB                MOV     R3,A
0010 EA                MOV     A,R2
0011 34FF              ADDC    A,#0FFH
0013 FA                MOV     R2,A
0014 A3                INC     DPTR
0015 E0                MOVX    A,@DPTR
0016 FE                MOV     R6,A
0017 A3                INC     DPTR
0018 E0                MOVX    A,@DPTR
0019 24FF              ADD     A,#0FFH
001B FF                MOV     R7,A
001C EE                MOV     A,R6
001D 120000      R     LCALL   L?0177
0020 D007              POP     AR7
0022 D006              POP     AR6
0024 120000      R     LCALL   _LCD_SetRegion
                                           ; SOURCE LINE # 305
0027 900000      R     MOV     DPTR,#startY
002A E0                MOVX    A,@DPTR
002B FF                MOV     R7,A
002C A3                INC     DPTR
002D E0                MOVX    A,@DPTR
002E 900000      R     MOV     DPTR,#i
0031 CF                XCH     A,R7
0032 F0                MOVX    @DPTR,A
0033 A3                INC     DPTR
0034 EF                MOV     A,R7
0035 F0                MOVX    @DPTR,A
0036         ?C0077:
0036 900000      R     MOV     DPTR,#endY
0039 E0                MOVX    A,@DPTR
003A FE                MOV     R6,A
003B A3                INC     DPTR
003C E0                MOVX    A,@DPTR
003D FF                MOV     R7,A
003E C3                CLR     C
003F 900000      R     MOV     DPTR,#i+01H
0042 E0                MOVX    A,@DPTR
0043 9F                SUBB    A,R7
0044 900000      R     MOV     DPTR,#i
0047 E0                MOVX    A,@DPTR
0048 9E                SUBB    A,R6
0049 5039              JNC     ?C0083
                                           ; SOURCE LINE # 306
                                           ; SOURCE LINE # 307
004B 900000      R     MOV     DPTR,#startX
004E E0                MOVX    A,@DPTR
004F FE                MOV     R6,A
0050 A3                INC     DPTR
0051 E0                MOVX    A,@DPTR
;---- Variable 'j' assigned to Register 'R2/R3' ----
0052 FB                MOV     R3,A
0053 AA06              MOV     R2,AR6
0055         ?C0080:
0055 D3                SETB    C
0056 900000      R     MOV     DPTR,#endX+01H
0059 E0                MOVX    A,@DPTR
005A 9B                SUBB    A,R3
005B 900000      R     MOV     DPTR,#endX
005E E0                MOVX    A,@DPTR
005F 9A                SUBB    A,R2
C51 COMPILER V9.60.0.0   LCDDRIVER                                                         05/03/2021 21:31:15 PAGE 56  

0060 4012              JC      ?C0079
                                           ; SOURCE LINE # 308
                                           ; SOURCE LINE # 309
0062 900000      R     MOV     DPTR,#color
0065 E0                MOVX    A,@DPTR
0066 FE                MOV     R6,A
0067 A3                INC     DPTR
0068 E0                MOVX    A,@DPTR
0069 FF                MOV     R7,A
006A 120000      R     LCALL   _LCD_WriteData_16Bit
                                           ; SOURCE LINE # 310
006D 0B                INC     R3
006E BB0001            CJNE    R3,#00H,?C0126
0071 0A                INC     R2
0072         ?C0126:
0072 80E1              SJMP    ?C0080
                                           ; SOURCE LINE # 311
0074         ?C0079:
0074 900000      R     MOV     DPTR,#i+01H
0077 E0                MOVX    A,@DPTR
0078 04                INC     A
0079 F0                MOVX    @DPTR,A
007A 70BA              JNZ     ?C0077
007C 900000      R     MOV     DPTR,#i
007F E0                MOVX    A,@DPTR
0080 04                INC     A
0081 F0                MOVX    @DPTR,A
0082         ?C0127:
0082 80B2              SJMP    ?C0077
                                           ; SOURCE LINE # 312
0084         ?C0083:
0084 22                RET     
             ; FUNCTION _LCD_Fill (END)

             ; FUNCTION _LCD_DrawPoint (BEGIN)
                                           ; SOURCE LINE # 313
0000 900000      R     MOV     DPTR,#x
0003 EE                MOV     A,R6
0004 F0                MOVX    @DPTR,A
0005 A3                INC     DPTR
0006 EF                MOV     A,R7
0007 F0                MOVX    @DPTR,A
0008 900000      R     MOV     DPTR,#color
000B EA                MOV     A,R2
000C F0                MOVX    @DPTR,A
000D A3                INC     DPTR
000E EB                MOV     A,R3
000F F0                MOVX    @DPTR,A
0010 900000      R     MOV     DPTR,#y
0013 EC                MOV     A,R4
0014 F0                MOVX    @DPTR,A
0015 A3                INC     DPTR
0016 ED                MOV     A,R5
0017 F0                MOVX    @DPTR,A
                                           ; SOURCE LINE # 314
0018 900000      R     MOV     DPTR,#x
001B 120000      R     LCALL   L?0179
001E C007              PUSH    AR7
0020 A3                INC     DPTR
0021 E0                MOVX    A,@DPTR
0022 FF                MOV     R7,A
0023 A3                INC     DPTR
C51 COMPILER V9.60.0.0   LCDDRIVER                                                         05/03/2021 21:31:15 PAGE 57  

0024 E0                MOVX    A,@DPTR
0025 900000      R     MOV     DPTR,#?_LCD_SetRegion?BYTE+06H
0028 CF                XCH     A,R7
0029 F0                MOVX    @DPTR,A
002A A3                INC     DPTR
002B EF                MOV     A,R7
002C F0                MOVX    @DPTR,A
002D D007              POP     AR7
002F 120000      R     LCALL   _LCD_SetRegion
                                           ; SOURCE LINE # 315
0032 900000      R     MOV     DPTR,#color
0035 E0                MOVX    A,@DPTR
0036 FE                MOV     R6,A
0037 A3                INC     DPTR
0038 E0                MOVX    A,@DPTR
0039 FF                MOV     R7,A
003A 020000      R     LJMP    _LCD_WriteData_16Bit
             ; FUNCTION _LCD_DrawPoint (END)

             ; FUNCTION _LCD_DrawLine (BEGIN)
                                           ; SOURCE LINE # 318
0000 900000      R     MOV     DPTR,#x1
0003 120000      R     LCALL   L?0146
;---- Variable 'x2' assigned to Register 'R2/R3' ----
                                           ; SOURCE LINE # 320
0006 E4                CLR     A
0007 900000      R     MOV     DPTR,#xerr
000A F0                MOVX    @DPTR,A
000B A3                INC     DPTR
000C F0                MOVX    @DPTR,A
000D A3                INC     DPTR
000E F0                MOVX    @DPTR,A
000F A3                INC     DPTR
0010 F0                MOVX    @DPTR,A
                                           ; SOURCE LINE # 322
0011 900000      R     MOV     DPTR,#x1
0014 E0                MOVX    A,@DPTR
0015 FE                MOV     R6,A
0016 A3                INC     DPTR
0017 E0                MOVX    A,@DPTR
0018 FF                MOV     R7,A
0019 C3                CLR     C
001A EB                MOV     A,R3
001B 9F                SUBB    A,R7
001C FF                MOV     R7,A
001D EA                MOV     A,R2
001E 9E                SUBB    A,R6
001F 900000      R     MOV     DPTR,#delta_x
0022 F0                MOVX    @DPTR,A
0023 A3                INC     DPTR
0024 EF                MOV     A,R7
0025 F0                MOVX    @DPTR,A
                                           ; SOURCE LINE # 323
0026 900000      R     MOV     DPTR,#y1
0029 E0                MOVX    A,@DPTR
002A FA                MOV     R2,A
002B A3                INC     DPTR
002C E0                MOVX    A,@DPTR
002D FB                MOV     R3,A
002E C3                CLR     C
002F 900000      R     MOV     DPTR,#y2+01H
0032 E0                MOVX    A,@DPTR
C51 COMPILER V9.60.0.0   LCDDRIVER                                                         05/03/2021 21:31:15 PAGE 58  

0033 9B                SUBB    A,R3
0034 FE                MOV     R6,A
0035 900000      R     MOV     DPTR,#y2
0038 E0                MOVX    A,@DPTR
0039 9A                SUBB    A,R2
003A 900000      R     MOV     DPTR,#delta_y
003D F0                MOVX    @DPTR,A
003E A3                INC     DPTR
003F CE                XCH     A,R6
0040 F0                MOVX    @DPTR,A
                                           ; SOURCE LINE # 324
0041 900000      R     MOV     DPTR,#x1
0044 E0                MOVX    A,@DPTR
0045 FF                MOV     R7,A
0046 A3                INC     DPTR
0047 E0                MOVX    A,@DPTR
0048 900000      R     MOV     DPTR,#uRow
004B CF                XCH     A,R7
004C F0                MOVX    @DPTR,A
004D A3                INC     DPTR
004E EF                MOV     A,R7
                                           ; SOURCE LINE # 325
004F 120000      R     LCALL   L?0172
                                           ; SOURCE LINE # 326
0052 120000      R     LCALL   L?0181
0055 D3                SETB    C
0056 9400              SUBB    A,#00H
0058 EE                MOV     A,R6
0059 6480              XRL     A,#080H
005B 9480              SUBB    A,#080H
005D 400A              JC      ?C0085
005F 900000      R     MOV     DPTR,#incx
0062 E4                CLR     A
0063 F0                MOVX    @DPTR,A
0064 A3                INC     DPTR
0065 04                INC     A
0066 F0                MOVX    @DPTR,A
0067 8021              SJMP    ?C0086
0069         ?C0085:
                                           ; SOURCE LINE # 327
0069 EF                MOV     A,R7
006A 4E                ORL     A,R6
006B 7008              JNZ     ?C0087
006D 900000      R     MOV     DPTR,#incx
0070 F0                MOVX    @DPTR,A
0071 A3                INC     DPTR
0072 F0                MOVX    @DPTR,A
0073 8015              SJMP    ?C0086
0075         ?C0087:
                                           ; SOURCE LINE # 328
0075 74FF              MOV     A,#0FFH
0077 900000      R     MOV     DPTR,#incx
007A F0                MOVX    @DPTR,A
007B A3                INC     DPTR
007C F0                MOVX    @DPTR,A
007D C3                CLR     C
007E E4                CLR     A
007F 9F                SUBB    A,R7
0080 FF                MOV     R7,A
0081 E4                CLR     A
0082 9E                SUBB    A,R6
0083 900000      R     MOV     DPTR,#delta_x
C51 COMPILER V9.60.0.0   LCDDRIVER                                                         05/03/2021 21:31:15 PAGE 59  

0086 F0                MOVX    @DPTR,A
0087 A3                INC     DPTR
0088 EF                MOV     A,R7
0089 F0                MOVX    @DPTR,A
008A         ?C0086:
                                           ; SOURCE LINE # 329
008A 120000      R     LCALL   L?0183
008D D3                SETB    C
008E 9400              SUBB    A,#00H
0090 EE                MOV     A,R6
0091 6480              XRL     A,#080H
0093 9480              SUBB    A,#080H
0095 400A              JC      ?C0089
0097 900000      R     MOV     DPTR,#incy
009A E4                CLR     A
009B F0                MOVX    @DPTR,A
009C A3                INC     DPTR
009D 04                INC     A
009E F0                MOVX    @DPTR,A
009F 8022              SJMP    ?C0090
00A1         ?C0089:
                                           ; SOURCE LINE # 330
00A1 EF                MOV     A,R7
00A2 4E                ORL     A,R6
00A3 7008              JNZ     ?C0091
00A5 900000      R     MOV     DPTR,#incy
00A8 F0                MOVX    @DPTR,A
00A9 A3                INC     DPTR
00AA F0                MOVX    @DPTR,A
00AB 8016              SJMP    ?C0090
00AD         ?C0091:
                                           ; SOURCE LINE # 331
00AD 74FF              MOV     A,#0FFH
00AF 900000      R     MOV     DPTR,#incy
00B2 F0                MOVX    @DPTR,A
00B3 A3                INC     DPTR
00B4 F0                MOVX    @DPTR,A
00B5 120000      R     LCALL   L?0181
00B8 C3                CLR     C
00B9 E4                CLR     A
00BA 9F                SUBB    A,R7
00BB FF                MOV     R7,A
00BC E4                CLR     A
00BD 9E                SUBB    A,R6
00BE A3                INC     DPTR
00BF F0                MOVX    @DPTR,A
00C0 A3                INC     DPTR
00C1 EF                MOV     A,R7
00C2 F0                MOVX    @DPTR,A
00C3         ?C0090:
                                           ; SOURCE LINE # 332
00C3 120000      R     LCALL   L?0183
00C6 900000      R     MOV     DPTR,#delta_x
00C9 E0                MOVX    A,@DPTR
00CA FC                MOV     R4,A
00CB A3                INC     DPTR
00CC D3                SETB    C
00CD 120000      R     LCALL   L?0140
00D0 900000      R     MOV     DPTR,#distance
00D3 4007              JC      ?C0093
00D5 EC                MOV     A,R4
00D6 F0                MOVX    @DPTR,A
C51 COMPILER V9.60.0.0   LCDDRIVER                                                         05/03/2021 21:31:15 PAGE 60  

00D7 A3                INC     DPTR
00D8 ED                MOV     A,R5
00D9 F0                MOVX    @DPTR,A
00DA 8005              SJMP    ?C0094
00DC         ?C0093:
                                           ; SOURCE LINE # 333
00DC EE                MOV     A,R6
00DD F0                MOVX    @DPTR,A
00DE A3                INC     DPTR
00DF EF                MOV     A,R7
00E0 F0                MOVX    @DPTR,A
00E1         ?C0094:
                                           ; SOURCE LINE # 334
00E1 E4                CLR     A
00E2 900000      R     MOV     DPTR,#t
00E5 F0                MOVX    @DPTR,A
00E6 A3                INC     DPTR
00E7 F0                MOVX    @DPTR,A
00E8         ?C0095:
00E8 900000      R     MOV     DPTR,#distance+01H
00EB E0                MOVX    A,@DPTR
00EC 2401              ADD     A,#01H
00EE FF                MOV     R7,A
00EF 900000      R     MOV     DPTR,#distance
00F2 E0                MOVX    A,@DPTR
00F3 3400              ADDC    A,#00H
00F5 FE                MOV     R6,A
00F6 C3                CLR     C
00F7 900000      R     MOV     DPTR,#t+01H
00FA E0                MOVX    A,@DPTR
00FB 9F                SUBB    A,R7
00FC 900000      R     MOV     DPTR,#t
00FF E0                MOVX    A,@DPTR
0100 9E                SUBB    A,R6
0101 4003              JC      $ + 5H
0103 020000      R     LJMP    ?C0100
                                           ; SOURCE LINE # 335
                                           ; SOURCE LINE # 336
0106 900000      R     MOV     DPTR,#uRow
0109 120000      R     LCALL   L?0166
010C 900000      R     MOV     DPTR,#color
010F E0                MOVX    A,@DPTR
0110 FA                MOV     R2,A
0111 A3                INC     DPTR
0112 E0                MOVX    A,@DPTR
0113 FB                MOV     R3,A
0114 120000      R     LCALL   _LCD_DrawPoint
                                           ; SOURCE LINE # 337
0117 120000      R     LCALL   L?0182
011A 900000      R     MOV     DPTR,#xerr+01H
011D E0                MOVX    A,@DPTR
011E 2F                ADD     A,R7
011F F0                MOVX    @DPTR,A
0120 900000      R     MOV     DPTR,#xerr
0123 E0                MOVX    A,@DPTR
0124 3E                ADDC    A,R6
0125 F0                MOVX    @DPTR,A
                                           ; SOURCE LINE # 338
0126 120000      R     LCALL   L?0184
0129 900000      R     MOV     DPTR,#yerr+01H
012C E0                MOVX    A,@DPTR
012D 2F                ADD     A,R7
C51 COMPILER V9.60.0.0   LCDDRIVER                                                         05/03/2021 21:31:15 PAGE 61  

012E F0                MOVX    @DPTR,A
012F 900000      R     MOV     DPTR,#yerr
0132 E0                MOVX    A,@DPTR
0133 3E                ADDC    A,R6
0134 F0                MOVX    @DPTR,A
                                           ; SOURCE LINE # 339
0135 900000      R     MOV     DPTR,#distance
0138 E0                MOVX    A,@DPTR
0139 FE                MOV     R6,A
013A A3                INC     DPTR
013B E0                MOVX    A,@DPTR
013C FF                MOV     R7,A
013D 900000      R     MOV     DPTR,#xerr
0140 E0                MOVX    A,@DPTR
0141 FC                MOV     R4,A
0142 A3                INC     DPTR
0143 E0                MOVX    A,@DPTR
0144 FD                MOV     R5,A
0145 D3                SETB    C
0146 120000      R     LCALL   L?0141
0149 401A              JC      ?C0098
                                           ; SOURCE LINE # 340
                                           ; SOURCE LINE # 341
014B 900000      R     MOV     DPTR,#xerr
014E 120000      R     LCALL   L?0206
                                           ; SOURCE LINE # 342
0151 900000      R     MOV     DPTR,#incx
0154 E0                MOVX    A,@DPTR
0155 FE                MOV     R6,A
0156 A3                INC     DPTR
0157 E0                MOVX    A,@DPTR
0158 FF                MOV     R7,A
0159 900000      R     MOV     DPTR,#uRow+01H
015C E0                MOVX    A,@DPTR
015D 2F                ADD     A,R7
015E F0                MOVX    @DPTR,A
015F 900000      R     MOV     DPTR,#uRow
0162 E0                MOVX    A,@DPTR
0163 3E                ADDC    A,R6
0164 F0                MOVX    @DPTR,A
                                           ; SOURCE LINE # 343
0165         ?C0098:
                                           ; SOURCE LINE # 344
0165 900000      R     MOV     DPTR,#distance
0168 E0                MOVX    A,@DPTR
0169 FE                MOV     R6,A
016A A3                INC     DPTR
016B E0                MOVX    A,@DPTR
016C FF                MOV     R7,A
016D 900000      R     MOV     DPTR,#yerr
0170 E0                MOVX    A,@DPTR
0171 FC                MOV     R4,A
0172 A3                INC     DPTR
0173 E0                MOVX    A,@DPTR
0174 FD                MOV     R5,A
0175 D3                SETB    C
0176 120000      R     LCALL   L?0141
0179 401A              JC      ?C0097
                                           ; SOURCE LINE # 345
                                           ; SOURCE LINE # 346
017B 900000      R     MOV     DPTR,#yerr
017E 120000      R     LCALL   L?0206
C51 COMPILER V9.60.0.0   LCDDRIVER                                                         05/03/2021 21:31:15 PAGE 62  

                                           ; SOURCE LINE # 347
0181 900000      R     MOV     DPTR,#incy
0184 E0                MOVX    A,@DPTR
0185 FE                MOV     R6,A
0186 A3                INC     DPTR
0187 E0                MOVX    A,@DPTR
0188 FF                MOV     R7,A
0189 900000      R     MOV     DPTR,#uCol+01H
018C E0                MOVX    A,@DPTR
018D 2F                ADD     A,R7
018E F0                MOVX    @DPTR,A
018F 900000      R     MOV     DPTR,#uCol
0192 E0                MOVX    A,@DPTR
0193 3E                ADDC    A,R6
0194 F0                MOVX    @DPTR,A
                                           ; SOURCE LINE # 348
                                           ; SOURCE LINE # 349
0195         ?C0097:
0195 900000      R     MOV     DPTR,#t+01H
0198 E0                MOVX    A,@DPTR
0199 04                INC     A
019A F0                MOVX    @DPTR,A
019B 7006              JNZ     ?C0128
019D 900000      R     MOV     DPTR,#t
01A0 E0                MOVX    A,@DPTR
01A1 04                INC     A
01A2 F0                MOVX    @DPTR,A
01A3         ?C0128:
01A3 020000      R     LJMP    ?C0095
                                           ; SOURCE LINE # 350
01A6         ?C0100:
01A6 22                RET     
             ; FUNCTION _LCD_DrawLine (END)

             ; FUNCTION _LCD_DrawRectangle (BEGIN)
                                           ; SOURCE LINE # 352
0000 900000      R     MOV     DPTR,#x2
0003 EA                MOV     A,R2
0004 F0                MOVX    @DPTR,A
0005 A3                INC     DPTR
0006 EB                MOV     A,R3
0007 F0                MOVX    @DPTR,A
0008 900000      R     MOV     DPTR,#x1
000B 120000      R     LCALL   L?0146
                                           ; SOURCE LINE # 353
000E C007              PUSH    AR7
0010 A3                INC     DPTR
0011 E0                MOVX    A,@DPTR
0012 FA                MOV     R2,A
0013 A3                INC     DPTR
0014 E0                MOVX    A,@DPTR
0015 FB                MOV     R3,A
0016 900000      R     MOV     DPTR,#y1
0019 120000      R     LCALL   L?0143
001C D007              POP     AR7
001E 120000      R     LCALL   _LCD_DrawLine
                                           ; SOURCE LINE # 354
0021 900000      R     MOV     DPTR,#x1
0024 120000      R     LCALL   L?0179
0027 C007              PUSH    AR7
0029 A3                INC     DPTR
002A 120000      R     LCALL   L?0142
C51 COMPILER V9.60.0.0   LCDDRIVER                                                         05/03/2021 21:31:15 PAGE 63  

002D D007              POP     AR7
002F 120000      R     LCALL   _LCD_DrawLine
                                           ; SOURCE LINE # 355
0032 900000      R     MOV     DPTR,#y2
0035 E0                MOVX    A,@DPTR
0036 FC                MOV     R4,A
0037 A3                INC     DPTR
0038 E0                MOVX    A,@DPTR
0039 FD                MOV     R5,A
003A 900000      R     MOV     DPTR,#x2
003D E0                MOVX    A,@DPTR
003E FA                MOV     R2,A
003F A3                INC     DPTR
0040 E0                MOVX    A,@DPTR
0041 FB                MOV     R3,A
0042 A3                INC     DPTR
0043 120000      R     LCALL   L?0143
0046 900000      R     MOV     DPTR,#x1
0049 E0                MOVX    A,@DPTR
004A FE                MOV     R6,A
004B A3                INC     DPTR
004C E0                MOVX    A,@DPTR
004D FF                MOV     R7,A
004E 120000      R     LCALL   _LCD_DrawLine
                                           ; SOURCE LINE # 356
0051 900000      R     MOV     DPTR,#x2
0054 120000      R     LCALL   L?0180
0057 C007              PUSH    AR7
0059 900000      R     MOV     DPTR,#y1
005C 120000      R     LCALL   L?0142
005F D007              POP     AR7
0061 020000      R     LJMP    _LCD_DrawLine
             ; FUNCTION _LCD_DrawRectangle (END)

             ; FUNCTION _LCD_DrawCircle (BEGIN)
                                           ; SOURCE LINE # 359
0000 900000      R     MOV     DPTR,#x0
0003 120000      R     LCALL   L?0146
0006 120000      R     LCALL   L?0173
                                           ; SOURCE LINE # 361
0009 E4                CLR     A
000A 900000      R     MOV     DPTR,#a
000D F0                MOVX    @DPTR,A
000E A3                INC     DPTR
000F 120000      R     LCALL   L?0172
0012         ?C0102:
                                           ; SOURCE LINE # 362
0012 900000      R     MOV     DPTR,#b
0015 E0                MOVX    A,@DPTR
0016 FE                MOV     R6,A
0017 A3                INC     DPTR
0018 E0                MOVX    A,@DPTR
0019 FF                MOV     R7,A
001A D3                SETB    C
001B 900000      R     MOV     DPTR,#a+01H
001E E0                MOVX    A,@DPTR
001F 900000      R     MOV     DPTR,#a
0022 120000      R     LCALL   L?0199
0025 4003              JC      $ + 5H
0027 020000      R     LJMP    ?C0105
                                           ; SOURCE LINE # 363
                                           ; SOURCE LINE # 364
C51 COMPILER V9.60.0.0   LCDDRIVER                                                         05/03/2021 21:31:15 PAGE 64  

002A 120000      R     LCALL   L?0154
002D 120000      R     LCALL   L?0135
                                           ; SOURCE LINE # 365
0030 120000      R     LCALL   L?0168
0033 120000      R     LCALL   L?0135
                                           ; SOURCE LINE # 366
0036 120000      R     LCALL   L?0152
0039 120000      R     LCALL   L?0136
                                           ; SOURCE LINE # 367
003C 120000      R     LCALL   L?0152
003F 120000      R     LCALL   L?0165
0042 FC                MOV     R4,A
0043 900000      R     MOV     DPTR,#color
0046 E0                MOVX    A,@DPTR
0047 FA                MOV     R2,A
0048 A3                INC     DPTR
0049 E0                MOVX    A,@DPTR
004A FB                MOV     R3,A
004B 120000      R     LCALL   _LCD_DrawPoint
                                           ; SOURCE LINE # 368
004E 120000      R     LCALL   L?0168
0051 120000      R     LCALL   L?0169
0054 3C                ADDC    A,R4
                                           ; SOURCE LINE # 369
0055 120000      R     LCALL   L?0144
0058 120000      R     LCALL   L?0165
                                           ; SOURCE LINE # 370
005B 120000      R     LCALL   L?0144
005E 120000      R     LCALL   L?0136
                                           ; SOURCE LINE # 371
0061 900000      R     MOV     DPTR,#b
0064 120000      R     LCALL   L?0153
0067 120000      R     LCALL   L?0169
006A 900000      R     MOV     DPTR,#color
006D 120000      R     LCALL   L?0148
0070 120000      R     LCALL   _LCD_DrawPoint
                                           ; SOURCE LINE # 372
0073 900000      R     MOV     DPTR,#a+01H
0076 E0                MOVX    A,@DPTR
0077 04                INC     A
0078 F0                MOVX    @DPTR,A
0079 7006              JNZ     ?C0129
007B 900000      R     MOV     DPTR,#a
007E E0                MOVX    A,@DPTR
007F 04                INC     A
0080 F0                MOVX    @DPTR,A
0081         ?C0129:
                                           ; SOURCE LINE # 373
0081 900000      R     MOV     DPTR,#b
0084 120000      R     LCALL   L?0170
0087 AA06              MOV     R2,AR6
0089 AB07              MOV     R3,AR7
008B 900000      R     MOV     DPTR,#a
008E 120000      R     LCALL   L?0170
0091 EF                MOV     A,R7
0092 2B                ADD     A,R3
0093 FB                MOV     R3,A
0094 EE                MOV     A,R6
0095 3A                ADDC    A,R2
0096 FA                MOV     R2,A
0097 900000      R     MOV     DPTR,#r
009A 120000      R     LCALL   L?0171
C51 COMPILER V9.60.0.0   LCDDRIVER                                                         05/03/2021 21:31:15 PAGE 65  

009D D3                SETB    C
009E EB                MOV     A,R3
009F 9F                SUBB    A,R7
00A0 EA                MOV     A,R2
00A1 9E                SUBB    A,R6
00A2 5003              JNC     $ + 5H
00A4 020000      R     LJMP    ?C0102
                                           ; SOURCE LINE # 374
                                           ; SOURCE LINE # 375
00A7 900000      R     MOV     DPTR,#b+01H
00AA E0                MOVX    A,@DPTR
00AB 24FF              ADD     A,#0FFH
00AD F0                MOVX    @DPTR,A
00AE 900000      R     MOV     DPTR,#b
00B1 E0                MOVX    A,@DPTR
00B2 34FF              ADDC    A,#0FFH
00B4 F0                MOVX    @DPTR,A
                                           ; SOURCE LINE # 376
                                           ; SOURCE LINE # 377
00B5 020000      R     LJMP    ?C0102
                                           ; SOURCE LINE # 378
00B8         ?C0105:
00B8 22                RET     
00B9         L?0135:
00B9 FE                MOV     R6,A
00BA 900000      R     MOV     DPTR,#a
00BD E0                MOVX    A,@DPTR
00BE FC                MOV     R4,A
00BF A3                INC     DPTR
00C0 E0                MOVX    A,@DPTR
00C1 FD                MOV     R5,A
00C2 C3                CLR     C
00C3 900000      R     MOV     DPTR,#y0+01H
00C6 E0                MOVX    A,@DPTR
00C7 9D                SUBB    A,R5
00C8 FD                MOV     R5,A
00C9 900000      R     MOV     DPTR,#y0
00CC E0                MOVX    A,@DPTR
00CD 9C                SUBB    A,R4
00CE FC                MOV     R4,A
00CF 900000      R     MOV     DPTR,#color
00D2 E0                MOVX    A,@DPTR
00D3 FA                MOV     R2,A
00D4 A3                INC     DPTR
00D5 E0                MOVX    A,@DPTR
00D6 FB                MOV     R3,A
00D7 120000      R     LCALL   _LCD_DrawPoint
00DA 22                RET     
00DB         L?0136:
00DB FE                MOV     R6,A
00DC 900000      R     MOV     DPTR,#b
00DF E0                MOVX    A,@DPTR
00E0 FC                MOV     R4,A
00E1 A3                INC     DPTR
00E2 E0                MOVX    A,@DPTR
00E3 FD                MOV     R5,A
00E4 900000      R     MOV     DPTR,#y0+01H
00E7 E0                MOVX    A,@DPTR
00E8 2D                ADD     A,R5
00E9 FD                MOV     R5,A
00EA 900000      R     MOV     DPTR,#y0
00ED E0                MOVX    A,@DPTR
C51 COMPILER V9.60.0.0   LCDDRIVER                                                         05/03/2021 21:31:15 PAGE 66  

00EE 3C                ADDC    A,R4
00EF FC                MOV     R4,A
00F0 900000      R     MOV     DPTR,#color
00F3 E0                MOVX    A,@DPTR
00F4 FA                MOV     R2,A
00F5 A3                INC     DPTR
00F6 E0                MOVX    A,@DPTR
00F7 FB                MOV     R3,A
00F8 120000      R     LCALL   _LCD_DrawPoint
00FB 22                RET     
00FC         L?0144:
00FC FC                MOV     R4,A
00FD 900000      R     MOV     DPTR,#color
0100 E0                MOVX    A,@DPTR
0101 FA                MOV     R2,A
0102 A3                INC     DPTR
0103 E0                MOVX    A,@DPTR
0104 FB                MOV     R3,A
0105 120000      R     LCALL   _LCD_DrawPoint
0108 900000      R     MOV     DPTR,#a
010B E0                MOVX    A,@DPTR
010C FE                MOV     R6,A
010D A3                INC     DPTR
010E E0                MOVX    A,@DPTR
010F FF                MOV     R7,A
0110 900000      R     MOV     DPTR,#x0+01H
0113 E0                MOVX    A,@DPTR
0114 2F                ADD     A,R7
0115 FF                MOV     R7,A
0116 900000      R     MOV     DPTR,#x0
0119 E0                MOVX    A,@DPTR
011A 3E                ADDC    A,R6
011B 22                RET     
             ; FUNCTION _LCD_DrawCircle (END)

             ; FUNCTION _LCD_ShowPicture (BEGIN)
                                           ; SOURCE LINE # 380
0000 900000      R     MOV     DPTR,#length
0003 EA                MOV     A,R2
0004 F0                MOVX    @DPTR,A
0005 A3                INC     DPTR
0006 EB                MOV     A,R3
0007 F0                MOVX    @DPTR,A
0008 900000      R     MOV     DPTR,#x
000B 120000      R     LCALL   L?0146
                                           ; SOURCE LINE # 381
                                           ; SOURCE LINE # 382
000E E4                CLR     A
000F 900000      R     MOV     DPTR,#k
0012 F0                MOVX    @DPTR,A
0013 A3                INC     DPTR
0014 F0                MOVX    @DPTR,A
                                           ; SOURCE LINE # 383
0015 C006              PUSH    AR6
0017 C007              PUSH    AR7
0019 900000      R     MOV     DPTR,#length
001C E0                MOVX    A,@DPTR
001D FE                MOV     R6,A
001E A3                INC     DPTR
001F E0                MOVX    A,@DPTR
0020 FF                MOV     R7,A
0021 900000      R     MOV     DPTR,#x
C51 COMPILER V9.60.0.0   LCDDRIVER                                                         05/03/2021 21:31:15 PAGE 67  

0024 E0                MOVX    A,@DPTR
0025 FA                MOV     R2,A
0026 A3                INC     DPTR
0027 E0                MOVX    A,@DPTR
0028 2F                ADD     A,R7
0029 FF                MOV     R7,A
002A EA                MOV     A,R2
002B 3E                ADDC    A,R6
002C CF                XCH     A,R7
002D 24FF              ADD     A,#0FFH
002F FB                MOV     R3,A
0030 EF                MOV     A,R7
0031 34FF              ADDC    A,#0FFH
0033 FA                MOV     R2,A
0034 900000      R     MOV     DPTR,#width
0037 E0                MOVX    A,@DPTR
0038 FE                MOV     R6,A
0039 A3                INC     DPTR
003A E0                MOVX    A,@DPTR
003B FF                MOV     R7,A
003C 900000      R     MOV     DPTR,#y
003F E0                MOVX    A,@DPTR
0040 F8                MOV     R0,A
0041 A3                INC     DPTR
0042 E0                MOVX    A,@DPTR
0043 2F                ADD     A,R7
0044 FF                MOV     R7,A
0045 E8                MOV     A,R0
0046 3E                ADDC    A,R6
0047 CF                XCH     A,R7
0048 24FF              ADD     A,#0FFH
004A CF                XCH     A,R7
004B 120000      R     LCALL   L?0177
004E D007              POP     AR7
0050 D006              POP     AR6
0052 120000      R     LCALL   _LCD_SetRegion
                                           ; SOURCE LINE # 384
;---- Variable 'i' assigned to Register 'R4/R5' ----
0055 E4                CLR     A
0056 FD                MOV     R5,A
0057 FC                MOV     R4,A
0058         ?C0106:
0058 D3                SETB    C
0059 900000      R     MOV     DPTR,#length+01H
005C E0                MOVX    A,@DPTR
005D 9D                SUBB    A,R5
005E 900000      R     MOV     DPTR,#length
0061 E0                MOVX    A,@DPTR
0062 9C                SUBB    A,R4
0063 4046              JC      ?C0112
                                           ; SOURCE LINE # 385
                                           ; SOURCE LINE # 386
;---- Variable 'j' assigned to Register 'R2/R3' ----
0065 E4                CLR     A
0066 FB                MOV     R3,A
0067 FA                MOV     R2,A
0068         ?C0109:
0068 D3                SETB    C
0069 900000      R     MOV     DPTR,#width+01H
006C E0                MOVX    A,@DPTR
006D 9B                SUBB    A,R3
006E 900000      R     MOV     DPTR,#width
C51 COMPILER V9.60.0.0   LCDDRIVER                                                         05/03/2021 21:31:15 PAGE 68  

0071 E0                MOVX    A,@DPTR
0072 9A                SUBB    A,R2
0073 402F              JC      ?C0108
                                           ; SOURCE LINE # 387
                                           ; SOURCE LINE # 388
0075 120000      R     LCALL   L?0185
0078 7400        R     MOV     A,#LOW picture1
007A 2F                ADD     A,R7
007B F582              MOV     DPL,A
007D 7400        R     MOV     A,#HIGH picture1
007F 120000      R     LCALL   L?0207
                                           ; SOURCE LINE # 389
0082 120000      R     LCALL   L?0185
0085 7400        R     MOV     A,#LOW picture1+01H
0087 2F                ADD     A,R7
0088 F582              MOV     DPL,A
008A 7400        R     MOV     A,#HIGH picture1+01H
008C 120000      R     LCALL   L?0207
                                           ; SOURCE LINE # 390
008F 900000      R     MOV     DPTR,#k+01H
0092 E0                MOVX    A,@DPTR
0093 04                INC     A
0094 F0                MOVX    @DPTR,A
0095 7006              JNZ     ?C0130
0097 900000      R     MOV     DPTR,#k
009A E0                MOVX    A,@DPTR
009B 04                INC     A
009C F0                MOVX    @DPTR,A
009D         ?C0130:
                                           ; SOURCE LINE # 391
009D 0B                INC     R3
009E BB0001            CJNE    R3,#00H,?C0131
00A1 0A                INC     R2
00A2         ?C0131:
00A2 80C4              SJMP    ?C0109
                                           ; SOURCE LINE # 392
00A4         ?C0108:
00A4 0D                INC     R5
00A5 BD0001            CJNE    R5,#00H,?C0132
00A8 0C                INC     R4
00A9         ?C0132:
00A9 80AD              SJMP    ?C0106
                                           ; SOURCE LINE # 393
00AB         ?C0112:
00AB 22                RET     
00AC         L?0207:
00AC 3E                ADDC    A,R6
00AD F583              MOV     DPH,A
00AF E4                CLR     A
00B0 93                MOVC    A,@A+DPTR
00B1 FF                MOV     R7,A
00B2 120000      R     LCALL   _LCD_WriteData
00B5 22                RET     
             ; FUNCTION _LCD_ShowPicture (END)



MODULE INFORMATION:   STATIC OVERLAYABLE
   CODE SIZE        =   3359    ----
   CONSTANT SIZE    =  20008    ----
   XDATA SIZE       =    100     145
   PDATA SIZE       =   ----    ----
C51 COMPILER V9.60.0.0   LCDDRIVER                                                         05/03/2021 21:31:15 PAGE 69  

   DATA SIZE        =   ----    ----
   IDATA SIZE       =   ----    ----
   BIT SIZE         =   ----    ----
   EDATA SIZE       =   ----    ----
   HDATA SIZE       =   ----    ----
   XDATA CONST SIZE =   ----    ----
   FAR CONST SIZE   =   ----    ----
END OF MODULE INFORMATION.


C51 COMPILATION COMPLETE.  0 WARNING(S),  0 ERROR(S)
